CCS PCM C Compiler, Version 5.015, 5967               22-Nov-23 00:23

               Filename:   C:\Users\soyan\proyectos_programacion\7_MM\circuito08\circuito08.lst

               ROM used:   3138 words (38%)
                           Largest free fragment is 2048
               RAM used:   22 (6%) at main() level
                           49 (13%) worst case
               Stack used: 5 locations
               Stack size: 8

*
0000:  MOVLW  08
0001:  MOVWF  0A
0002:  GOTO   000
0003:  NOP
.................... #include<16F887.h> 
.................... //////////// Standard Header file for the PIC16F887 device //////////////// 
.................... /////////////////////////////////////////////////////////////////////////// 
.................... ////        (C) Copyright 1996, 2013 Custom Computer Services          //// 
.................... //// This source code may only be used by licensed users of the CCS C  //// 
.................... //// compiler.  This source code may only be distributed to other      //// 
.................... //// licensed users of the CCS C compiler.  No other use, reproduction //// 
.................... //// or distribution is permitted without written permission.          //// 
.................... //// Derivative programs created using this software in object code    //// 
.................... //// form are not restricted in any way.                               //// 
.................... /////////////////////////////////////////////////////////////////////////// 
.................... #device PIC16F887 
0004:  DATA 0C,29
0005:  DATA E5,30
0006:  DATA E4,3C
0007:  DATA 2E,17
0008:  DATA 2E,05
0009:  DATA 00,00
000A:  DATA 49,37
000B:  DATA 67,39
000C:  DATA E5,39
000D:  DATA 65,10
000E:  DATA 75,37
000F:  DATA A0,36
0010:  DATA 6F,32
0011:  DATA 6F,10
0012:  DATA E4,32
0013:  DATA 20,3A
0014:  DATA F2,30
0015:  DATA E2,30
0016:  DATA EA,37
0017:  DATA 3A,10
0018:  DATA 8A,06
0019:  DATA 00,00
001A:  DATA 61,1D
001B:  DATA A0,26
001C:  DATA 61,37
001D:  DATA F5,30
001E:  DATA 6C,05
001F:  DATA 0D,00
0020:  DATA 62,1D
0021:  DATA A0,29
0022:  DATA E5,36
0023:  DATA E9,30
0024:  DATA 75,3A
0025:  DATA EF,36
0026:  DATA 61,3A
0027:  DATA E9,31
0028:  DATA 6F,10
0029:  DATA A8,26
002A:  DATA 6F,37
002B:  DATA 69,3A
002C:  DATA 6F,39
002D:  DATA A0,39
002E:  DATA 65,39
002F:  DATA E9,32
0030:  DATA 29,05
0031:  DATA 0D,00
0032:  DATA D3,32
0033:  DATA EC,32
0034:  DATA E3,31
0035:  DATA E9,37
0036:  DATA 6E,10
0037:  DATA ED,37
0038:  DATA E4,37
0039:  DATA 00,01
003A:  DATA 61,1D
003B:  DATA CD,30
003C:  DATA EE,3A
003D:  DATA 20,3E
003E:  DATA 20,31
003F:  DATA BA,29
0040:  DATA E5,36
0041:  DATA 69,00
0042:  DATA D6,30
0043:  DATA EC,37
0044:  DATA 72,10
0045:  DATA 69,37
0046:  DATA 67,39
0047:  DATA E5,39
0048:  DATA 61,32
0049:  DATA 6F,1D
004A:  DATA A0,12
004B:  DATA 63,05
004C:  DATA 0D,00
004D:  DATA 4D,1D
004E:  DATA CD,30
004F:  DATA 00,01
0050:  DATA CD,37
0051:  DATA E4,37
0052:  DATA 20,32
0053:  DATA 65,10
0054:  DATA 74,39
0055:  DATA 61,31
0056:  DATA 61,35
0057:  DATA 6F,10
0058:  DATA 61,1D
0059:  DATA A0,26
005A:  DATA 61,37
005B:  DATA F5,30
005C:  DATA 6C,05
005D:  DATA 0D,00
005E:  DATA CC,32
005F:  DATA 63,3A
0060:  DATA 75,39
0061:  DATA 61,10
0062:  DATA D3,18
0063:  DATA 3A,10
0064:  DATA A5,3A
0065:  DATA 8A,06
0066:  DATA 80,1D
0067:  DATA CC,32
0068:  DATA 63,3A
0069:  DATA 75,39
006A:  DATA 61,10
006B:  DATA D3,18
006C:  DATA 3A,10
006D:  DATA A5,3A
006E:  DATA 8A,06
006F:  DATA 00,01
0070:  DATA 44,1D
0071:  DATA C3,32
0072:  DATA 00,01
0073:  DATA D3,18
0074:  DATA 3A,10
0075:  DATA A5,3A
0076:  DATA 8A,06
0077:  DATA 00,01
0078:  DATA C4,34
0079:  DATA F2,32
007A:  DATA E3,31
007B:  DATA E9,37
007C:  DATA 6E,1D
007D:  DATA A0,21
007E:  DATA 65,37
007F:  DATA 74,39
0080:  DATA 6F,05
0081:  DATA 0D,00
0082:  DATA 47,39
0083:  DATA 61,32
0084:  DATA EF,39
0085:  DATA 3A,10
0086:  DATA 25,17
0087:  DATA 32,33
0088:  DATA A5,31
0089:  DATA 00,02
008A:  DATA 44,1D
008B:  DATA C4,32
008C:  DATA 00,00
008D:  DATA D3,18
008E:  DATA 3A,10
008F:  DATA A5,3A
0090:  DATA 8A,06
0091:  DATA 00,01
0092:  DATA C4,34
0093:  DATA F2,32
0094:  DATA E3,31
0095:  DATA E9,37
0096:  DATA 6E,1D
0097:  DATA 20,22
0098:  DATA 65,39
0099:  DATA E5,31
009A:  DATA E8,30
009B:  DATA 8A,06
009C:  DATA 00,01
009D:  DATA 47,39
009E:  DATA 61,32
009F:  DATA EF,39
00A0:  DATA 3A,10
00A1:  DATA 25,17
00A2:  DATA 32,33
00A3:  DATA A5,31
00A4:  DATA 8A,06
00A5:  DATA 00,01
00A6:  DATA 44,1D
00A7:  DATA 49,3D
00A8:  DATA 00,01
00A9:  DATA D3,18
00AA:  DATA 3A,10
00AB:  DATA A5,3A
00AC:  DATA 8A,06
00AD:  DATA 00,01
00AE:  DATA C4,34
00AF:  DATA F2,32
00B0:  DATA E3,31
00B1:  DATA E9,37
00B2:  DATA 6E,1D
00B3:  DATA A0,24
00B4:  DATA FA,38
00B5:  DATA F5,34
00B6:  DATA 65,39
00B7:  DATA E4,30
00B8:  DATA 8A,06
00B9:  DATA 00,01
00BA:  DATA 47,39
00BB:  DATA 61,32
00BC:  DATA EF,39
00BD:  DATA 3A,10
00BE:  DATA 25,17
00BF:  DATA 32,33
00C0:  DATA A5,31
00C1:  DATA 8A,06
00C2:  DATA 00,01
00C3:  DATA D2,32
00C4:  DATA 70,10
00C5:  DATA 56,1D
00C6:  DATA 25,17
00C7:  DATA 32,33
00C8:  DATA A5,12
00C9:  DATA 00,00
00CA:  DATA 53,19
00CB:  DATA 3A,10
00CC:  DATA A5,3A
00CD:  DATA 8A,06
00CE:  DATA 00,01
00CF:  DATA C5,39
00D0:  DATA F4,30
00D1:  DATA E4,37
00D2:  DATA 3A,10
00D3:  DATA D2,32
00D4:  DATA F0,37
00D5:  DATA F3,37
00D6:  DATA 8A,06
00D7:  DATA 00,01
00D8:  DATA D6,32
00D9:  DATA EC,37
00DA:  DATA E3,34
00DB:  DATA E4,30
00DC:  DATA 64,1D
00DD:  DATA A0,12
00DE:  DATA 2E,19
00DF:  DATA E6,12
00E0:  DATA 25,00
00E1:  DATA CD,30
00E2:  DATA 72,10
00E3:  DATA 56,1D
00E4:  DATA 25,17
00E5:  DATA 32,33
00E6:  DATA A5,12
00E7:  DATA 00,01
00E8:  DATA 53,19
00E9:  DATA 3A,10
00EA:  DATA A5,3A
00EB:  DATA 8A,06
00EC:  DATA 00,01
00ED:  DATA C5,39
00EE:  DATA F4,30
00EF:  DATA E4,37
00F0:  DATA 3A,10
00F1:  DATA CD,30
00F2:  DATA F2,31
00F3:  DATA E8,30
00F4:  DATA 8A,06
00F5:  DATA 00,01
00F6:  DATA D6,32
00F7:  DATA EC,37
00F8:  DATA E3,34
00F9:  DATA E4,30
00FA:  DATA 64,1D
00FB:  DATA A0,12
00FC:  DATA 2E,19
00FD:  DATA E6,12
00FE:  DATA 25,00
00FF:  DATA D2,32
0100:  DATA 76,10
0101:  DATA 56,1D
0102:  DATA 25,17
0103:  DATA 32,33
0104:  DATA A5,12
0105:  DATA 00,01
0106:  DATA 53,19
0107:  DATA 3A,10
0108:  DATA A5,3A
0109:  DATA 8A,06
010A:  DATA 00,01
010B:  DATA C5,39
010C:  DATA F4,30
010D:  DATA E4,37
010E:  DATA 3A,10
010F:  DATA D2,32
0110:  DATA F6,32
0111:  DATA F2,39
0112:  DATA 61,05
0113:  DATA 0D,00
0114:  DATA D6,32
0115:  DATA EC,37
0116:  DATA E3,34
0117:  DATA E4,30
0118:  DATA 64,1D
0119:  DATA A0,12
011A:  DATA 2E,19
011B:  DATA E6,12
011C:  DATA 25,00
011D:  DATA 49,37
011E:  DATA 67,39
011F:  DATA E5,39
0120:  DATA 65,10
0121:  DATA 73,10
0122:  DATA F0,30
0123:  DATA F2,30
0124:  DATA A0,39
0125:  DATA 61,36
0126:  DATA 69,39
0127:  DATA 20,05
0128:  DATA 0D,00
0129:  DATA 4D,1D
012A:  DATA C1,3A
012B:  DATA F4,37
012C:  DATA ED,30
012D:  DATA F4,34
012E:  DATA E3,37
012F:  DATA 00,01
0130:  DATA CD,37
0131:  DATA E4,37
0132:  DATA 20,32
0133:  DATA 65,10
0134:  DATA 74,39
0135:  DATA 61,31
0136:  DATA 61,35
0137:  DATA 6F,10
0138:  DATA 62,1D
0139:  DATA A0,20
013A:  DATA 75,3A
013B:  DATA EF,36
013C:  DATA 61,3A
013D:  DATA E9,31
013E:  DATA 6F,05
013F:  DATA 0D,00
0140:  DATA C4,32
0141:  DATA F4,32
0142:  DATA EE,32
0143:  DATA 72,00
0144:  DATA C4,32
0145:  DATA EE,34
0146:  DATA E4,37
0147:  DATA 3A,10
0148:  DATA C8,30
0149:  DATA 79,10
014A:  DATA 75,37
014B:  DATA A0,37
014C:  DATA E2,39
014D:  DATA F4,30
014E:  DATA E3,3A
014F:  DATA EC,37
0150:  DATA 00,01
0151:  DATA 41,3B
0152:  DATA 61,37
0153:  DATA FA,30
0154:  DATA 72,00
0155:  DATA 41,3B
0156:  DATA 61,37
0157:  DATA FA,30
0158:  DATA 6E,32
0159:  DATA 6F,00
015A:  DATA 49,37
015B:  DATA 67,39
015C:  DATA E5,39
015D:  DATA 65,10
015E:  DATA 73,10
015F:  DATA F0,30
0160:  DATA F2,30
0161:  DATA A0,39
0162:  DATA 61,36
0163:  DATA 69,39
0164:  DATA 20,05
0165:  DATA 0D,00
*
0249:  MOVF   0B,W
024A:  MOVWF  32
024B:  BCF    0B.7
024C:  BSF    03.5
024D:  BSF    03.6
024E:  BSF    0C.7
024F:  BSF    0C.0
0250:  NOP
0251:  NOP
0252:  BCF    03.5
0253:  BCF    03.6
0254:  BTFSC  32.7
0255:  BSF    0B.7
0256:  BSF    03.6
0257:  MOVF   0C,W
0258:  ANDLW  7F
0259:  BTFSC  03.2
025A:  GOTO   29D
025B:  BCF    03.6
025C:  MOVWF  32
025D:  BSF    03.6
025E:  MOVF   0D,W
025F:  BCF    03.6
0260:  MOVWF  33
0261:  BSF    03.6
0262:  MOVF   0F,W
0263:  BCF    03.6
0264:  MOVWF  34
0265:  MOVF   32,W
0266:  MOVWF  3F
0267:  CALL   21D
0268:  MOVF   33,W
0269:  BSF    03.6
026A:  MOVWF  0D
026B:  BCF    03.6
026C:  MOVF   34,W
026D:  BSF    03.6
026E:  MOVWF  0F
026F:  BCF    03.6
0270:  MOVF   0B,W
0271:  MOVWF  35
0272:  BCF    0B.7
0273:  BSF    03.5
0274:  BSF    03.6
0275:  BSF    0C.7
0276:  BSF    0C.0
0277:  NOP
0278:  NOP
0279:  BCF    03.5
027A:  BCF    03.6
027B:  BTFSC  35.7
027C:  BSF    0B.7
027D:  BSF    03.6
027E:  RLF    0C,W
027F:  RLF    0E,W
0280:  ANDLW  7F
0281:  BTFSC  03.2
0282:  GOTO   29D
0283:  BCF    03.6
0284:  MOVWF  32
0285:  BSF    03.6
0286:  MOVF   0D,W
0287:  BCF    03.6
0288:  MOVWF  33
0289:  BSF    03.6
028A:  MOVF   0F,W
028B:  BCF    03.6
028C:  MOVWF  34
028D:  MOVF   32,W
028E:  MOVWF  3F
028F:  CALL   21D
0290:  MOVF   33,W
0291:  BSF    03.6
0292:  MOVWF  0D
0293:  BCF    03.6
0294:  MOVF   34,W
0295:  BSF    03.6
0296:  MOVWF  0F
0297:  INCF   0D,F
0298:  BTFSC  03.2
0299:  INCF   0F,F
029A:  BCF    03.6
029B:  GOTO   249
029C:  BSF    03.6
029D:  BCF    03.6
029E:  RETURN
029F:  MOVF   0B,W
02A0:  MOVWF  32
02A1:  BCF    0B.7
02A2:  BSF    03.5
02A3:  BSF    03.6
02A4:  BSF    0C.7
02A5:  BSF    0C.0
02A6:  NOP
02A7:  NOP
02A8:  BCF    03.5
02A9:  BCF    03.6
02AA:  BTFSC  32.7
02AB:  BSF    0B.7
02AC:  BSF    03.6
02AD:  MOVF   0C,W
02AE:  ANDLW  7F
02AF:  BTFSC  03.2
02B0:  GOTO   2F5
02B1:  BCF    03.6
02B2:  MOVWF  32
02B3:  BSF    03.6
02B4:  MOVF   0D,W
02B5:  BCF    03.6
02B6:  MOVWF  33
02B7:  BSF    03.6
02B8:  MOVF   0F,W
02B9:  BCF    03.6
02BA:  MOVWF  34
02BB:  MOVF   32,W
02BC:  BTFSS  0C.4
02BD:  GOTO   2BC
02BE:  MOVWF  19
02BF:  MOVF   33,W
02C0:  BSF    03.6
02C1:  MOVWF  0D
02C2:  BCF    03.6
02C3:  MOVF   34,W
02C4:  BSF    03.6
02C5:  MOVWF  0F
02C6:  BCF    03.6
02C7:  MOVF   0B,W
02C8:  MOVWF  35
02C9:  BCF    0B.7
02CA:  BSF    03.5
02CB:  BSF    03.6
02CC:  BSF    0C.7
02CD:  BSF    0C.0
02CE:  NOP
02CF:  NOP
02D0:  BCF    03.5
02D1:  BCF    03.6
02D2:  BTFSC  35.7
02D3:  BSF    0B.7
02D4:  BSF    03.6
02D5:  RLF    0C,W
02D6:  RLF    0E,W
02D7:  ANDLW  7F
02D8:  BTFSC  03.2
02D9:  GOTO   2F5
02DA:  BCF    03.6
02DB:  MOVWF  32
02DC:  BSF    03.6
02DD:  MOVF   0D,W
02DE:  BCF    03.6
02DF:  MOVWF  33
02E0:  BSF    03.6
02E1:  MOVF   0F,W
02E2:  BCF    03.6
02E3:  MOVWF  34
02E4:  MOVF   32,W
02E5:  BTFSS  0C.4
02E6:  GOTO   2E5
02E7:  MOVWF  19
02E8:  MOVF   33,W
02E9:  BSF    03.6
02EA:  MOVWF  0D
02EB:  BCF    03.6
02EC:  MOVF   34,W
02ED:  BSF    03.6
02EE:  MOVWF  0F
02EF:  INCF   0D,F
02F0:  BTFSC  03.2
02F1:  INCF   0F,F
02F2:  BCF    03.6
02F3:  GOTO   29F
02F4:  BSF    03.6
02F5:  BCF    03.6
02F6:  RETURN
*
0312:  MOVF   0B,W
0313:  MOVWF  33
0314:  BCF    0B.7
0315:  BSF    03.5
0316:  BSF    03.6
0317:  BSF    0C.7
0318:  BSF    0C.0
0319:  NOP
031A:  NOP
031B:  BCF    03.5
031C:  BCF    03.6
031D:  BTFSC  33.7
031E:  BSF    0B.7
031F:  BTFSC  03.0
0320:  GOTO   34A
0321:  BSF    03.6
0322:  MOVF   0C,W
0323:  ANDLW  7F
0324:  BCF    03.6
0325:  MOVWF  33
0326:  BSF    03.6
0327:  MOVF   0D,W
0328:  BCF    03.6
0329:  MOVWF  34
032A:  BSF    03.6
032B:  MOVF   0F,W
032C:  BCF    03.6
032D:  MOVWF  35
032E:  MOVF   33,W
032F:  BTFSS  0C.4
0330:  GOTO   32F
0331:  MOVWF  19
0332:  MOVF   34,W
0333:  BSF    03.6
0334:  MOVWF  0D
0335:  BCF    03.6
0336:  MOVF   35,W
0337:  BSF    03.6
0338:  MOVWF  0F
0339:  BCF    03.6
033A:  MOVF   0B,W
033B:  MOVWF  36
033C:  BCF    0B.7
033D:  BSF    03.5
033E:  BSF    03.6
033F:  BSF    0C.7
0340:  BSF    0C.0
0341:  NOP
0342:  NOP
0343:  BCF    03.5
0344:  BCF    03.6
0345:  BTFSC  36.7
0346:  BSF    0B.7
0347:  DECFSZ 32,F
0348:  GOTO   34A
0349:  GOTO   36A
034A:  BSF    03.6
034B:  RLF    0C,W
034C:  RLF    0E,W
034D:  ANDLW  7F
034E:  BCF    03.6
034F:  MOVWF  33
0350:  BSF    03.6
0351:  MOVF   0D,W
0352:  BCF    03.6
0353:  MOVWF  34
0354:  BSF    03.6
0355:  MOVF   0F,W
0356:  BCF    03.6
0357:  MOVWF  35
0358:  MOVF   33,W
0359:  BTFSS  0C.4
035A:  GOTO   359
035B:  MOVWF  19
035C:  MOVF   34,W
035D:  BSF    03.6
035E:  MOVWF  0D
035F:  BCF    03.6
0360:  MOVF   35,W
0361:  BSF    03.6
0362:  MOVWF  0F
0363:  INCF   0D,F
0364:  BTFSC  03.2
0365:  INCF   0F,F
0366:  BCF    03.0
0367:  BCF    03.6
0368:  DECFSZ 32,F
0369:  GOTO   312
036A:  RETURN
036B:  MOVF   35,W
036C:  CLRF   78
036D:  SUBWF  34,W
036E:  BTFSC  03.0
036F:  GOTO   373
0370:  MOVF   34,W
0371:  MOVWF  77
0372:  GOTO   37F
0373:  CLRF   77
0374:  MOVLW  08
0375:  MOVWF  36
0376:  RLF    34,F
0377:  RLF    77,F
0378:  MOVF   35,W
0379:  SUBWF  77,W
037A:  BTFSC  03.0
037B:  MOVWF  77
037C:  RLF    78,F
037D:  DECFSZ 36,F
037E:  GOTO   376
037F:  RETURN
0380:  MOVF   78,W
0381:  MOVF   32,W
0382:  MOVWF  34
0383:  MOVLW  64
0384:  MOVWF  35
0385:  CALL   36B
0386:  MOVF   77,W
0387:  MOVWF  32
0388:  MOVF   78,W
0389:  MOVLW  30
038A:  BTFSS  03.2
038B:  GOTO   393
038C:  BTFSS  33.1
038D:  GOTO   39B
038E:  BTFSC  33.3
038F:  GOTO   39B
0390:  BTFSC  33.4
0391:  MOVLW  20
0392:  GOTO   396
0393:  BCF    33.3
0394:  BCF    33.4
0395:  BSF    33.0
0396:  ADDWF  78,F
0397:  MOVF   78,W
0398:  BTFSS  0C.4
0399:  GOTO   398
039A:  MOVWF  19
039B:  MOVF   32,W
039C:  MOVWF  34
039D:  MOVLW  0A
039E:  MOVWF  35
039F:  CALL   36B
03A0:  MOVF   77,W
03A1:  MOVWF  32
03A2:  MOVF   78,W
03A3:  MOVLW  30
03A4:  BTFSS  03.2
03A5:  GOTO   3AC
03A6:  BTFSC  33.3
03A7:  GOTO   3B1
03A8:  BTFSS  33.0
03A9:  GOTO   3B1
03AA:  BTFSC  33.4
03AB:  MOVLW  20
03AC:  ADDWF  78,F
03AD:  MOVF   78,W
03AE:  BTFSS  0C.4
03AF:  GOTO   3AE
03B0:  MOVWF  19
03B1:  MOVLW  30
03B2:  ADDWF  32,F
03B3:  MOVF   32,W
03B4:  BTFSS  0C.4
03B5:  GOTO   3B4
03B6:  MOVWF  19
03B7:  RETURN
03B8:  MOVF   3F,W
03B9:  BTFSC  03.2
03BA:  GOTO   428
03BB:  MOVWF  47
03BC:  MOVF   43,W
03BD:  BTFSC  03.2
03BE:  GOTO   428
03BF:  ADDWF  47,F
03C0:  BTFSC  03.0
03C1:  GOTO   3C9
03C2:  MOVLW  7F
03C3:  SUBWF  47,F
03C4:  BTFSS  03.0
03C5:  GOTO   428
03C6:  BTFSC  03.2
03C7:  GOTO   428
03C8:  GOTO   3CD
03C9:  MOVLW  81
03CA:  ADDWF  47,F
03CB:  BTFSC  03.0
03CC:  GOTO   428
03CD:  MOVF   47,W
03CE:  MOVWF  77
03CF:  CLRF   78
03D0:  CLRF   79
03D1:  CLRF   7A
03D2:  MOVF   40,W
03D3:  MOVWF  4B
03D4:  BSF    4B.7
03D5:  MOVF   41,W
03D6:  MOVWF  4A
03D7:  MOVF   42,W
03D8:  MOVWF  49
03D9:  MOVLW  18
03DA:  MOVWF  47
03DB:  CLRF   48
03DC:  BTFSS  49.0
03DD:  GOTO   3F6
03DE:  MOVF   46,W
03DF:  ADDWF  7A,F
03E0:  BTFSS  03.0
03E1:  GOTO   3E8
03E2:  INCF   79,F
03E3:  BTFSS  03.2
03E4:  GOTO   3E8
03E5:  INCF   78,F
03E6:  BTFSC  03.2
03E7:  BSF    48.7
03E8:  MOVF   45,W
03E9:  ADDWF  79,F
03EA:  BTFSS  03.0
03EB:  GOTO   3EF
03EC:  INCF   78,F
03ED:  BTFSC  03.2
03EE:  BSF    48.7
03EF:  MOVF   44,W
03F0:  MOVWF  41
03F1:  BSF    41.7
03F2:  MOVF   41,W
03F3:  ADDWF  78,F
03F4:  BTFSC  03.0
03F5:  BSF    48.7
03F6:  RLF    48,F
03F7:  RRF    78,F
03F8:  RRF    79,F
03F9:  RRF    7A,F
03FA:  RRF    4B,F
03FB:  RRF    4A,F
03FC:  RRF    49,F
03FD:  BCF    03.0
03FE:  DECFSZ 47,F
03FF:  GOTO   3DB
0400:  MOVLW  01
0401:  ADDWF  77,F
0402:  BTFSC  03.0
0403:  GOTO   428
0404:  BTFSC  78.7
0405:  GOTO   40D
0406:  RLF    4B,F
0407:  RLF    7A,F
0408:  RLF    79,F
0409:  RLF    78,F
040A:  DECF   77,F
040B:  BTFSC  03.2
040C:  GOTO   428
040D:  BTFSS  4B.7
040E:  GOTO   41E
040F:  INCF   7A,F
0410:  BTFSS  03.2
0411:  GOTO   41E
0412:  INCF   79,F
0413:  BTFSS  03.2
0414:  GOTO   41E
0415:  INCF   78,F
0416:  BTFSS  03.2
0417:  GOTO   41E
0418:  RRF    78,F
0419:  RRF    79,F
041A:  RRF    7A,F
041B:  INCF   77,F
041C:  BTFSC  03.2
041D:  GOTO   428
041E:  MOVF   40,W
041F:  MOVWF  48
0420:  MOVF   44,W
0421:  XORWF  48,F
0422:  BTFSS  48.7
0423:  GOTO   426
0424:  BSF    78.7
0425:  GOTO   42C
0426:  BCF    78.7
0427:  GOTO   42C
0428:  CLRF   77
0429:  CLRF   78
042A:  CLRF   79
042B:  CLRF   7A
042C:  RETURN
042D:  MOVF   3F,W
042E:  SUBLW  B6
042F:  MOVWF  3F
0430:  CLRF   7A
0431:  MOVF   40,W
0432:  MOVWF  43
0433:  BSF    40.7
0434:  BCF    03.0
0435:  RRF    40,F
0436:  RRF    41,F
0437:  RRF    42,F
0438:  RRF    7A,F
0439:  RRF    79,F
043A:  RRF    78,F
043B:  RRF    77,F
043C:  DECFSZ 3F,F
043D:  GOTO   434
043E:  BTFSS  43.7
043F:  GOTO   44B
0440:  COMF   77,F
0441:  COMF   78,F
0442:  COMF   79,F
0443:  COMF   7A,F
0444:  INCF   77,F
0445:  BTFSC  03.2
0446:  INCF   78,F
0447:  BTFSC  03.2
0448:  INCF   79,F
0449:  BTFSC  03.2
044A:  INCF   7A,F
044B:  RETURN
044C:  BTFSC  03.1
044D:  GOTO   451
044E:  MOVLW  47
044F:  MOVWF  04
0450:  BCF    03.7
0451:  CLRF   77
0452:  CLRF   78
0453:  CLRF   79
0454:  CLRF   7A
0455:  CLRF   47
0456:  CLRF   48
0457:  CLRF   49
0458:  CLRF   4A
0459:  MOVF   46,W
045A:  IORWF  45,W
045B:  IORWF  44,W
045C:  IORWF  43,W
045D:  BTFSC  03.2
045E:  GOTO   48F
045F:  MOVLW  20
0460:  MOVWF  4B
0461:  BCF    03.0
0462:  RLF    3F,F
0463:  RLF    40,F
0464:  RLF    41,F
0465:  RLF    42,F
0466:  RLF    47,F
0467:  RLF    48,F
0468:  RLF    49,F
0469:  RLF    4A,F
046A:  MOVF   46,W
046B:  SUBWF  4A,W
046C:  BTFSS  03.2
046D:  GOTO   478
046E:  MOVF   45,W
046F:  SUBWF  49,W
0470:  BTFSS  03.2
0471:  GOTO   478
0472:  MOVF   44,W
0473:  SUBWF  48,W
0474:  BTFSS  03.2
0475:  GOTO   478
0476:  MOVF   43,W
0477:  SUBWF  47,W
0478:  BTFSS  03.0
0479:  GOTO   489
047A:  MOVF   43,W
047B:  SUBWF  47,F
047C:  MOVF   44,W
047D:  BTFSS  03.0
047E:  INCFSZ 44,W
047F:  SUBWF  48,F
0480:  MOVF   45,W
0481:  BTFSS  03.0
0482:  INCFSZ 45,W
0483:  SUBWF  49,F
0484:  MOVF   46,W
0485:  BTFSS  03.0
0486:  INCFSZ 46,W
0487:  SUBWF  4A,F
0488:  BSF    03.0
0489:  RLF    77,F
048A:  RLF    78,F
048B:  RLF    79,F
048C:  RLF    7A,F
048D:  DECFSZ 4B,F
048E:  GOTO   461
048F:  MOVF   47,W
0490:  MOVWF  00
0491:  INCF   04,F
0492:  MOVF   48,W
0493:  MOVWF  00
0494:  INCF   04,F
0495:  MOVF   49,W
0496:  MOVWF  00
0497:  INCF   04,F
0498:  MOVF   4A,W
0499:  MOVWF  00
049A:  RETURN
049B:  MOVF   04,W
049C:  MOVWF  37
049D:  MOVF   36,W
049E:  MOVWF  39
049F:  BTFSC  03.2
04A0:  GOTO   4BA
04A1:  MOVF   35,W
04A2:  MOVWF  42
04A3:  MOVF   34,W
04A4:  MOVWF  41
04A5:  MOVF   33,W
04A6:  MOVWF  40
04A7:  MOVF   32,W
04A8:  MOVWF  3F
04A9:  CLRF   46
04AA:  CLRF   45
04AB:  MOVLW  20
04AC:  MOVWF  44
04AD:  MOVLW  82
04AE:  MOVWF  43
04AF:  CALL   3B8
04B0:  MOVF   7A,W
04B1:  MOVWF  35
04B2:  MOVF   79,W
04B3:  MOVWF  34
04B4:  MOVF   78,W
04B5:  MOVWF  33
04B6:  MOVF   77,W
04B7:  MOVWF  32
04B8:  DECFSZ 39,F
04B9:  GOTO   4A1
04BA:  MOVF   35,W
04BB:  MOVWF  42
04BC:  MOVF   34,W
04BD:  MOVWF  41
04BE:  MOVF   33,W
04BF:  MOVWF  40
04C0:  MOVF   32,W
04C1:  MOVWF  3F
04C2:  CALL   42D
04C3:  MOVF   7A,W
04C4:  MOVWF  35
04C5:  MOVF   79,W
04C6:  MOVWF  34
04C7:  MOVF   78,W
04C8:  MOVWF  33
04C9:  MOVF   77,W
04CA:  MOVWF  32
04CB:  BTFSS  35.7
04CC:  GOTO   4DA
04CD:  DECF   37,F
04CE:  BSF    37.5
04CF:  COMF   32,F
04D0:  COMF   33,F
04D1:  COMF   34,F
04D2:  COMF   35,F
04D3:  INCF   32,F
04D4:  BTFSC  03.2
04D5:  INCF   33,F
04D6:  BTFSC  03.2
04D7:  INCF   34,F
04D8:  BTFSC  03.2
04D9:  INCF   35,F
04DA:  MOVLW  3B
04DB:  MOVWF  3E
04DC:  MOVLW  9A
04DD:  MOVWF  3D
04DE:  MOVLW  CA
04DF:  MOVWF  3C
04E0:  CLRF   3B
04E1:  MOVLW  0A
04E2:  MOVWF  39
04E3:  MOVF   36,W
04E4:  BTFSC  03.2
04E5:  INCF   37,F
04E6:  BSF    03.1
04E7:  MOVLW  32
04E8:  MOVWF  04
04E9:  BCF    03.7
04EA:  MOVF   35,W
04EB:  MOVWF  42
04EC:  MOVF   34,W
04ED:  MOVWF  41
04EE:  MOVF   33,W
04EF:  MOVWF  40
04F0:  MOVF   32,W
04F1:  MOVWF  3F
04F2:  MOVF   3E,W
04F3:  MOVWF  46
04F4:  MOVF   3D,W
04F5:  MOVWF  45
04F6:  MOVF   3C,W
04F7:  MOVWF  44
04F8:  MOVF   3B,W
04F9:  MOVWF  43
04FA:  CALL   44C
04FB:  MOVF   78,W
04FC:  MOVF   77,F
04FD:  BTFSS  03.2
04FE:  GOTO   512
04FF:  INCF   36,W
0500:  SUBWF  39,W
0501:  BTFSC  03.2
0502:  GOTO   512
0503:  MOVF   37,W
0504:  BTFSC  03.2
0505:  GOTO   514
0506:  ANDLW  0F
0507:  SUBWF  39,W
0508:  BTFSC  03.2
0509:  GOTO   50C
050A:  BTFSC  03.0
050B:  GOTO   544
050C:  BTFSC  37.7
050D:  GOTO   544
050E:  BTFSC  37.6
050F:  GOTO   514
0510:  MOVLW  20
0511:  GOTO   540
0512:  MOVLW  20
0513:  ANDWF  37,F
0514:  BTFSS  37.5
0515:  GOTO   522
0516:  BCF    37.5
0517:  MOVF   36,W
0518:  BTFSS  03.2
0519:  DECF   37,F
051A:  MOVF   77,W
051B:  MOVWF  37
051C:  MOVLW  2D
051D:  MOVWF  3F
051E:  CALL   21D
051F:  MOVF   37,W
0520:  MOVWF  77
0521:  CLRF   37
0522:  MOVF   36,W
0523:  SUBWF  39,W
0524:  BTFSS  03.2
0525:  GOTO   530
0526:  MOVF   77,W
0527:  MOVWF  37
0528:  MOVLW  2E
0529:  MOVWF  3F
052A:  CALL   21D
052B:  MOVF   37,W
052C:  MOVWF  77
052D:  MOVLW  20
052E:  ANDWF  37,F
052F:  MOVLW  00
0530:  MOVLW  30
0531:  BTFSS  37.5
0532:  GOTO   540
0533:  BCF    37.5
0534:  MOVF   36,W
0535:  BTFSS  03.2
0536:  DECF   37,F
0537:  MOVF   77,W
0538:  MOVWF  37
0539:  MOVLW  2D
053A:  MOVWF  3F
053B:  CALL   21D
053C:  MOVF   37,W
053D:  MOVWF  77
053E:  CLRF   37
053F:  MOVLW  30
0540:  ADDWF  77,F
0541:  MOVF   77,W
0542:  MOVWF  3F
0543:  CALL   21D
0544:  BCF    03.1
0545:  MOVF   3E,W
0546:  MOVWF  42
0547:  MOVF   3D,W
0548:  MOVWF  41
0549:  MOVF   3C,W
054A:  MOVWF  40
054B:  MOVF   3B,W
054C:  MOVWF  3F
054D:  CLRF   46
054E:  CLRF   45
054F:  CLRF   44
0550:  MOVLW  0A
0551:  MOVWF  43
0552:  CALL   44C
0553:  MOVF   7A,W
0554:  MOVWF  3E
0555:  MOVF   79,W
0556:  MOVWF  3D
0557:  MOVF   78,W
0558:  MOVWF  3C
0559:  MOVF   77,W
055A:  MOVWF  3B
055B:  DECFSZ 39,F
055C:  GOTO   4E6
055D:  RETURN
055E:  MOVF   04,W
055F:  MOVWF  37
0560:  MOVF   36,W
0561:  MOVWF  39
0562:  BTFSC  03.2
0563:  GOTO   57D
0564:  MOVF   35,W
0565:  MOVWF  42
0566:  MOVF   34,W
0567:  MOVWF  41
0568:  MOVF   33,W
0569:  MOVWF  40
056A:  MOVF   32,W
056B:  MOVWF  3F
056C:  CLRF   46
056D:  CLRF   45
056E:  MOVLW  20
056F:  MOVWF  44
0570:  MOVLW  82
0571:  MOVWF  43
0572:  CALL   3B8
0573:  MOVF   7A,W
0574:  MOVWF  35
0575:  MOVF   79,W
0576:  MOVWF  34
0577:  MOVF   78,W
0578:  MOVWF  33
0579:  MOVF   77,W
057A:  MOVWF  32
057B:  DECFSZ 39,F
057C:  GOTO   564
057D:  MOVF   35,W
057E:  MOVWF  42
057F:  MOVF   34,W
0580:  MOVWF  41
0581:  MOVF   33,W
0582:  MOVWF  40
0583:  MOVF   32,W
0584:  MOVWF  3F
0585:  CALL   42D
0586:  MOVF   7A,W
0587:  MOVWF  35
0588:  MOVF   79,W
0589:  MOVWF  34
058A:  MOVF   78,W
058B:  MOVWF  33
058C:  MOVF   77,W
058D:  MOVWF  32
058E:  BTFSS  35.7
058F:  GOTO   59D
0590:  DECF   37,F
0591:  BSF    37.5
0592:  COMF   32,F
0593:  COMF   33,F
0594:  COMF   34,F
0595:  COMF   35,F
0596:  INCF   32,F
0597:  BTFSC  03.2
0598:  INCF   33,F
0599:  BTFSC  03.2
059A:  INCF   34,F
059B:  BTFSC  03.2
059C:  INCF   35,F
059D:  MOVLW  3B
059E:  MOVWF  3E
059F:  MOVLW  9A
05A0:  MOVWF  3D
05A1:  MOVLW  CA
05A2:  MOVWF  3C
05A3:  CLRF   3B
05A4:  MOVLW  0A
05A5:  MOVWF  39
05A6:  MOVF   36,W
05A7:  BTFSC  03.2
05A8:  INCF   37,F
05A9:  BSF    03.1
05AA:  MOVLW  32
05AB:  MOVWF  04
05AC:  BCF    03.7
05AD:  MOVF   35,W
05AE:  MOVWF  42
05AF:  MOVF   34,W
05B0:  MOVWF  41
05B1:  MOVF   33,W
05B2:  MOVWF  40
05B3:  MOVF   32,W
05B4:  MOVWF  3F
05B5:  MOVF   3E,W
05B6:  MOVWF  46
05B7:  MOVF   3D,W
05B8:  MOVWF  45
05B9:  MOVF   3C,W
05BA:  MOVWF  44
05BB:  MOVF   3B,W
05BC:  MOVWF  43
05BD:  CALL   44C
05BE:  MOVF   78,W
05BF:  MOVF   77,F
05C0:  BTFSS  03.2
05C1:  GOTO   5D5
05C2:  INCF   36,W
05C3:  SUBWF  39,W
05C4:  BTFSC  03.2
05C5:  GOTO   5D5
05C6:  MOVF   37,W
05C7:  BTFSC  03.2
05C8:  GOTO   5D7
05C9:  ANDLW  0F
05CA:  SUBWF  39,W
05CB:  BTFSC  03.2
05CC:  GOTO   5CF
05CD:  BTFSC  03.0
05CE:  GOTO   60B
05CF:  BTFSC  37.7
05D0:  GOTO   60B
05D1:  BTFSC  37.6
05D2:  GOTO   5D7
05D3:  MOVLW  20
05D4:  GOTO   606
05D5:  MOVLW  20
05D6:  ANDWF  37,F
05D7:  BTFSS  37.5
05D8:  GOTO   5E6
05D9:  BCF    37.5
05DA:  MOVF   36,W
05DB:  BTFSS  03.2
05DC:  DECF   37,F
05DD:  MOVF   77,W
05DE:  MOVWF  37
05DF:  MOVLW  2D
05E0:  BTFSS  0C.4
05E1:  GOTO   5E0
05E2:  MOVWF  19
05E3:  MOVF   37,W
05E4:  MOVWF  77
05E5:  CLRF   37
05E6:  MOVF   36,W
05E7:  SUBWF  39,W
05E8:  BTFSS  03.2
05E9:  GOTO   5F5
05EA:  MOVF   77,W
05EB:  MOVWF  37
05EC:  MOVLW  2E
05ED:  BTFSS  0C.4
05EE:  GOTO   5ED
05EF:  MOVWF  19
05F0:  MOVF   37,W
05F1:  MOVWF  77
05F2:  MOVLW  20
05F3:  ANDWF  37,F
05F4:  MOVLW  00
05F5:  MOVLW  30
05F6:  BTFSS  37.5
05F7:  GOTO   606
05F8:  BCF    37.5
05F9:  MOVF   36,W
05FA:  BTFSS  03.2
05FB:  DECF   37,F
05FC:  MOVF   77,W
05FD:  MOVWF  37
05FE:  MOVLW  2D
05FF:  BTFSS  0C.4
0600:  GOTO   5FF
0601:  MOVWF  19
0602:  MOVF   37,W
0603:  MOVWF  77
0604:  CLRF   37
0605:  MOVLW  30
0606:  ADDWF  77,F
0607:  MOVF   77,W
0608:  BTFSS  0C.4
0609:  GOTO   608
060A:  MOVWF  19
060B:  BCF    03.1
060C:  MOVF   3E,W
060D:  MOVWF  42
060E:  MOVF   3D,W
060F:  MOVWF  41
0610:  MOVF   3C,W
0611:  MOVWF  40
0612:  MOVF   3B,W
0613:  MOVWF  3F
0614:  CLRF   46
0615:  CLRF   45
0616:  CLRF   44
0617:  MOVLW  0A
0618:  MOVWF  43
0619:  CALL   44C
061A:  MOVF   7A,W
061B:  MOVWF  3E
061C:  MOVF   79,W
061D:  MOVWF  3D
061E:  MOVF   78,W
061F:  MOVWF  3C
0620:  MOVF   77,W
0621:  MOVWF  3B
0622:  DECFSZ 39,F
0623:  GOTO   5A9
0624:  RETURN
0625:  MOVLW  8E
0626:  MOVWF  77
0627:  MOVF   34,W
0628:  MOVWF  78
0629:  MOVF   33,W
062A:  MOVWF  79
062B:  CLRF   7A
062C:  MOVF   78,F
062D:  BTFSS  03.2
062E:  GOTO   639
062F:  MOVF   79,W
0630:  MOVWF  78
0631:  CLRF   79
0632:  MOVLW  08
0633:  SUBWF  77,F
0634:  MOVF   78,F
0635:  BTFSS  03.2
0636:  GOTO   639
0637:  CLRF   77
0638:  GOTO   641
0639:  BCF    03.0
063A:  BTFSC  78.7
063B:  GOTO   640
063C:  RLF    79,F
063D:  RLF    78,F
063E:  DECF   77,F
063F:  GOTO   639
0640:  BCF    78.7
0641:  RETURN
0642:  MOVF   0B,W
0643:  MOVWF  33
0644:  BCF    0B.7
0645:  BSF    03.5
0646:  BSF    03.6
0647:  BSF    0C.7
0648:  BSF    0C.0
0649:  NOP
064A:  NOP
064B:  BCF    03.5
064C:  BCF    03.6
064D:  BTFSC  33.7
064E:  BSF    0B.7
064F:  BTFSC  03.0
0650:  GOTO   679
0651:  BSF    03.6
0652:  MOVF   0C,W
0653:  ANDLW  7F
0654:  BCF    03.6
0655:  MOVWF  33
0656:  BSF    03.6
0657:  MOVF   0D,W
0658:  BCF    03.6
0659:  MOVWF  34
065A:  BSF    03.6
065B:  MOVF   0F,W
065C:  BCF    03.6
065D:  MOVWF  35
065E:  MOVF   33,W
065F:  MOVWF  3F
0660:  CALL   21D
0661:  MOVF   34,W
0662:  BSF    03.6
0663:  MOVWF  0D
0664:  BCF    03.6
0665:  MOVF   35,W
0666:  BSF    03.6
0667:  MOVWF  0F
0668:  BCF    03.6
0669:  MOVF   0B,W
066A:  MOVWF  36
066B:  BCF    0B.7
066C:  BSF    03.5
066D:  BSF    03.6
066E:  BSF    0C.7
066F:  BSF    0C.0
0670:  NOP
0671:  NOP
0672:  BCF    03.5
0673:  BCF    03.6
0674:  BTFSC  36.7
0675:  BSF    0B.7
0676:  DECFSZ 32,F
0677:  GOTO   679
0678:  GOTO   698
0679:  BSF    03.6
067A:  RLF    0C,W
067B:  RLF    0E,W
067C:  ANDLW  7F
067D:  BCF    03.6
067E:  MOVWF  33
067F:  BSF    03.6
0680:  MOVF   0D,W
0681:  BCF    03.6
0682:  MOVWF  34
0683:  BSF    03.6
0684:  MOVF   0F,W
0685:  BCF    03.6
0686:  MOVWF  35
0687:  MOVF   33,W
0688:  MOVWF  3F
0689:  CALL   21D
068A:  MOVF   34,W
068B:  BSF    03.6
068C:  MOVWF  0D
068D:  BCF    03.6
068E:  MOVF   35,W
068F:  BSF    03.6
0690:  MOVWF  0F
0691:  INCF   0D,F
0692:  BTFSC  03.2
0693:  INCF   0F,F
0694:  BCF    03.0
0695:  BCF    03.6
0696:  DECFSZ 32,F
0697:  GOTO   642
0698:  RETURN
....................  
.................... #list 
....................  
.................... #device ADC = 8//tamaño de bits de resolucion 
.................... #fuses INTRC_IO, NOWDT, PROTECT, NOLVP, MCLR, NOLVP, NOBROWNOUT 
.................... #use delay(INTERNAL=4000000) 
*
0166:  MOVLW  40
0167:  MOVWF  04
0168:  BCF    03.7
0169:  MOVF   00,W
016A:  BTFSC  03.2
016B:  GOTO   17A
016C:  MOVLW  01
016D:  MOVWF  78
016E:  CLRF   77
016F:  DECFSZ 77,F
0170:  GOTO   16F
0171:  DECFSZ 78,F
0172:  GOTO   16E
0173:  MOVLW  4A
0174:  MOVWF  77
0175:  DECFSZ 77,F
0176:  GOTO   175
0177:  GOTO   178
0178:  DECFSZ 00,F
0179:  GOTO   16C
017A:  RETURN
.................... // se inicializa el puerto serie en el microcontrolador 
.................... #use RS232(baud = 9600, xmit = PIN_C6, rcv = PIN_C7, timeout = 100)  
*
02F7:  MOVLW  01
02F8:  MOVWF  33
02F9:  MOVLW  40
02FA:  MOVWF  32
02FB:  MOVLW  67
02FC:  MOVWF  77
02FD:  DECFSZ 77,F
02FE:  GOTO   2FD
02FF:  GOTO   300
0300:  DECFSZ 32,F
0301:  GOTO   307
0302:  DECFSZ 33,F
0303:  GOTO   307
0304:  CLRF   20
0305:  CLRF   78
0306:  GOTO   311
0307:  BTFSS  0C.5
0308:  GOTO   2FB
0309:  MOVF   18,W
030A:  MOVWF  20
030B:  MOVF   1A,W
030C:  MOVWF  78
030D:  BTFSS  20.1
030E:  GOTO   311
030F:  BCF    18.4
0310:  BSF    18.4
0311:  RETURN
.................... //argumentos PS(ancho de banda (Tx bits/s), pin Tx, pin Rx, tiempo de respuesta) 
....................   
.................... // se define el puerto D completo para la conexion al LCD 
.................... #define LCD_DATA_PORT getenv("SFR:PORTD") 
.................... // se define el uso de la biblioteca para manipular LCD 
.................... #include <lcd.c> 
.................... /////////////////////////////////////////////////////////////////////////////// 
.................... ////                             LCD.C                                     //// 
.................... ////                 Driver for common LCD modules                         //// 
.................... ////                                                                       //// 
.................... ////  lcd_init()   Must be called before any other function.               //// 
.................... ////                                                                       //// 
.................... ////  lcd_putc(c)  Will display c on the next position of the LCD.         //// 
.................... ////                 \a  Set cursor position to upper left                 //// 
.................... ////                 \f  Clear display, set cursor to upper left           //// 
.................... ////                 \n  Go to start of second line                        //// 
.................... ////                 \b  Move back one position                            //// 
.................... ////              If LCD_EXTENDED_NEWLINE is defined, the \n character     //// 
.................... ////              will erase all remanining characters on the current      //// 
.................... ////              line, and move the cursor to the beginning of the next   //// 
.................... ////              line.                                                    //// 
.................... ////              If LCD_EXTENDED_NEWLINE is defined, the \r character     //// 
.................... ////              will move the cursor to the start of the current         //// 
.................... ////              line.                                                    //// 
.................... ////                                                                       //// 
.................... ////  lcd_gotoxy(x,y) Set write position on LCD (upper left is 1,1)        //// 
.................... ////                                                                       //// 
.................... ////  lcd_getc(x,y)   Returns character at position x,y on LCD             //// 
.................... ////                                                                       //// 
.................... ////  lcd_cursor_on(int1 on)   Turn the cursor on (on=TRUE) or off         //// 
.................... ////              (on=FALSE).                                              //// 
.................... ////                                                                       //// 
.................... ////  lcd_set_cgram_char(w, *p)   Write a custom character to the CGRAM.   //// 
.................... ////                                                                       //// 
.................... ////                                                                       //// 
.................... ////  CONFIGURATION                                                        //// 
.................... ////  The LCD can be configured in one of two ways: a.) port access or     //// 
.................... ////  b.) pin access.  Port access requires the entire 7 bit interface     //// 
.................... ////  connected to one GPIO port, and the data bits (D4:D7 of the LCD)     //// 
.................... ////  connected to sequential pins on the GPIO.  Pin access                //// 
.................... ////  has no requirements, all 7 bits of the control interface can         //// 
.................... ////  can be connected to any GPIO using several ports.                    //// 
.................... ////                                                                       //// 
.................... ////  To use port access, #define LCD_DATA_PORT to the SFR location of     //// 
.................... ////  of the GPIO port that holds the interface, -AND- edit LCD_PIN_MAP    //// 
.................... ////  of this file to configure the pin order.  If you are using a         //// 
.................... ////  baseline PIC (PCB), then LCD_OUTPUT_MAP and LCD_INPUT_MAP also must  //// 
.................... ////  be defined.                                                          //// 
.................... ////                                                                       //// 
.................... ////  Example of port access:                                              //// 
.................... ////     #define LCD_DATA_PORT getenv("SFR:PORTD")                         //// 
.................... ////                                                                       //// 
.................... ////  To use pin access, the following pins must be defined:               //// 
.................... ////     LCD_ENABLE_PIN                                                    //// 
.................... ////     LCD_RS_PIN                                                        //// 
.................... ////     LCD_RW_PIN                                                        //// 
.................... ////     LCD_DATA4                                                         //// 
.................... ////     LCD_DATA5                                                         //// 
.................... ////     LCD_DATA6                                                         //// 
.................... ////     LCD_DATA7                                                         //// 
.................... ////                                                                       //// 
.................... ////  Example of pin access:                                               //// 
.................... ////     #define LCD_ENABLE_PIN  PIN_E0                                    //// 
.................... ////     #define LCD_RS_PIN      PIN_E1                                    //// 
.................... ////     #define LCD_RW_PIN      PIN_E2                                    //// 
.................... ////     #define LCD_DATA4       PIN_D4                                    //// 
.................... ////     #define LCD_DATA5       PIN_D5                                    //// 
.................... ////     #define LCD_DATA6       PIN_D6                                    //// 
.................... ////     #define LCD_DATA7       PIN_D7                                    //// 
.................... ////                                                                       //// 
.................... /////////////////////////////////////////////////////////////////////////////// 
.................... ////        (C) Copyright 1996,2010 Custom Computer Services           //// 
.................... //// This source code may only be used by licensed users of the CCS C  //// 
.................... //// compiler.  This source code may only be distributed to other      //// 
.................... //// licensed users of the CCS C compiler.  No other use, reproduction //// 
.................... //// or distribution is permitted without written permission.          //// 
.................... //// Derivative programs created using this software in object code    //// 
.................... //// form are not restricted in any way.                               //// 
.................... /////////////////////////////////////////////////////////////////////////// 
....................  
.................... #ifndef __LCD_C__ 
.................... #define __LCD_C__ 
....................  
.................... // define the pinout. 
.................... // only required if port access is being used. 
.................... typedef struct   
.................... {                            // This structure is overlayed 
....................    int1 enable;           // on to an I/O port to gain 
....................    int1 rs;               // access to the LCD pins. 
....................    int1 rw;               // The bits are allocated from 
....................    int1 unused;           // low order up.  ENABLE will 
....................    unsigned int     data : 4;         // be LSB pin of that port. 
....................   #if defined(__PCD__)       // The port used will be LCD_DATA_PORT. 
....................    unsigned int    reserved: 8; 
....................   #endif 
.................... } LCD_PIN_MAP; 
....................  
.................... // this is to improve compatability with previous LCD drivers that accepted 
.................... // a define labeled 'use_portb_lcd' that configured the LCD onto port B. 
.................... #if ((defined(use_portb_lcd)) && (use_portb_lcd==TRUE)) 
....................  #define LCD_DATA_PORT getenv("SFR:PORTB") 
.................... #endif 
....................  
.................... #if defined(__PCB__) 
....................    // these definitions only need to be modified for baseline PICs. 
....................    // all other PICs use LCD_PIN_MAP or individual LCD_xxx pin definitions. 
.................... /*                                    EN, RS,   RW,   UNUSED,  DATA  */ 
....................  const LCD_PIN_MAP LCD_OUTPUT_MAP =  {0,  0,    0,    0,       0}; 
....................  const LCD_PIN_MAP LCD_INPUT_MAP =   {0,  0,    0,    0,       0xF}; 
.................... #endif 
....................  
.................... ////////////////////// END CONFIGURATION /////////////////////////////////// 
....................  
.................... #ifndef LCD_ENABLE_PIN 
....................    #define lcd_output_enable(x) lcdlat.enable=x 
....................    #define lcd_enable_tris()   lcdtris.enable=0 
.................... #else 
....................    #define lcd_output_enable(x) output_bit(LCD_ENABLE_PIN, x) 
....................    #define lcd_enable_tris()  output_drive(LCD_ENABLE_PIN) 
.................... #endif 
....................  
.................... #ifndef LCD_RS_PIN 
....................    #define lcd_output_rs(x) lcdlat.rs=x 
....................    #define lcd_rs_tris()   lcdtris.rs=0 
.................... #else 
....................    #define lcd_output_rs(x) output_bit(LCD_RS_PIN, x) 
....................    #define lcd_rs_tris()  output_drive(LCD_RS_PIN) 
.................... #endif 
....................  
.................... #ifndef LCD_RW_PIN 
....................    #define lcd_output_rw(x) lcdlat.rw=x 
....................    #define lcd_rw_tris()   lcdtris.rw=0 
.................... #else 
....................    #define lcd_output_rw(x) output_bit(LCD_RW_PIN, x) 
....................    #define lcd_rw_tris()  output_drive(LCD_RW_PIN) 
.................... #endif 
....................  
.................... // original version of this library incorrectly labeled LCD_DATA0 as LCD_DATA4, 
.................... // LCD_DATA1 as LCD_DATA5, and so on.  this block of code makes the driver 
.................... // compatible with any code written for the original library 
.................... #if (defined(LCD_DATA0) && defined(LCD_DATA1) && defined(LCD_DATA2) && defined(LCD_DATA3) && !defined(LCD_DATA4) && !defined(LCD_DATA5) && !defined(LCD_DATA6) && !defined(LCD_DATA7)) 
....................    #define  LCD_DATA4    LCD_DATA0 
....................    #define  LCD_DATA5    LCD_DATA1 
....................    #define  LCD_DATA6    LCD_DATA2 
....................    #define  LCD_DATA7    LCD_DATA3 
.................... #endif 
....................  
.................... #ifndef LCD_DATA4 
.................... #ifndef LCD_DATA_PORT 
....................    #if defined(__PCB__) 
....................       #define LCD_DATA_PORT      0x06     //portb 
....................       #define set_tris_lcd(x)   set_tris_b(x) 
....................    #else 
....................      #if defined(PIN_D0) 
....................       #define LCD_DATA_PORT      getenv("SFR:PORTD")     //portd 
....................      #else 
....................       #define LCD_DATA_PORT      getenv("SFR:PORTB")     //portb 
....................      #endif 
....................    #endif    
.................... #endif 
....................  
.................... #if defined(__PCB__) 
....................    LCD_PIN_MAP lcd, lcdlat; 
....................    #byte lcd = LCD_DATA_PORT 
....................    #byte lcdlat = LCD_DATA_PORT 
.................... #elif defined(__PCM__) 
....................    LCD_PIN_MAP lcd, lcdlat, lcdtris; 
....................    #byte lcd = LCD_DATA_PORT 
....................    #byte lcdlat = LCD_DATA_PORT 
....................    #byte lcdtris = LCD_DATA_PORT+0x80 
.................... #elif defined(__PCH__) 
....................    LCD_PIN_MAP lcd, lcdlat, lcdtris; 
....................    #byte lcd = LCD_DATA_PORT 
....................    #byte lcdlat = LCD_DATA_PORT+9 
....................    #byte lcdtris = LCD_DATA_PORT+0x12 
.................... #elif defined(__PCD__) 
....................    LCD_PIN_MAP lcd, lcdlat, lcdtris; 
....................    #word lcd = LCD_DATA_PORT 
....................    #word lcdlat = LCD_DATA_PORT+2 
....................    #word lcdtris = LCD_DATA_PORT-0x02 
.................... #endif 
.................... #endif   //LCD_DATA4 not defined 
....................  
.................... #ifndef LCD_TYPE 
....................    #define LCD_TYPE 2           // 0=5x7, 1=5x10, 2=2 lines 
.................... #endif 
....................  
.................... #ifndef LCD_LINE_TWO 
....................    #define LCD_LINE_TWO 0x40    // LCD RAM address for the second line 
.................... #endif 
....................  
.................... #ifndef LCD_LINE_LENGTH 
....................    #define LCD_LINE_LENGTH 20 
.................... #endif 
....................  
.................... unsigned int8 lcd_read_nibble(void); 
....................  
.................... unsigned int8 lcd_read_byte(void) 
.................... { 
....................    unsigned int8 low,high; 
....................  
....................  #if defined(__PCB__) 
....................    set_tris_lcd(LCD_INPUT_MAP); 
....................  #else 
....................   #if (defined(LCD_DATA4) && defined(LCD_DATA5) && defined(LCD_DATA6) && defined(LCD_DATA7)) 
....................    output_float(LCD_DATA4); 
....................    output_float(LCD_DATA5); 
....................    output_float(LCD_DATA6); 
....................    output_float(LCD_DATA7); 
....................   #else 
....................    lcdtris.data = 0xF; 
*
0193:  MOVLW  0F
0194:  BSF    03.5
0195:  ANDWF  08,W
0196:  IORLW  F0
0197:  MOVWF  08
....................   #endif 
....................  #endif 
....................          
....................    lcd_output_rw(1); 
0198:  BCF    03.5
0199:  BSF    08.2
....................    delay_cycles(1); 
019A:  NOP
....................    lcd_output_enable(1); 
019B:  BSF    08.0
....................    delay_cycles(1); 
019C:  NOP
....................    high = lcd_read_nibble(); 
019D:  CALL   187
019E:  MOVF   78,W
019F:  MOVWF  47
....................        
....................    lcd_output_enable(0); 
01A0:  BCF    08.0
....................    delay_cycles(1); 
01A1:  NOP
....................    lcd_output_enable(1); 
01A2:  BSF    08.0
....................    delay_us(1); 
01A3:  NOP
....................    low = lcd_read_nibble(); 
01A4:  CALL   187
01A5:  MOVF   78,W
01A6:  MOVWF  46
....................        
....................    lcd_output_enable(0); 
01A7:  BCF    08.0
....................  
....................  #if defined(__PCB__) 
....................    set_tris_lcd(LCD_OUTPUT_MAP); 
....................  #else 
....................   #if (defined(LCD_DATA4) && defined(LCD_DATA5) && defined(LCD_DATA6) && defined(LCD_DATA7)) 
....................    output_drive(LCD_DATA4); 
....................    output_drive(LCD_DATA5); 
....................    output_drive(LCD_DATA6); 
....................    output_drive(LCD_DATA7); 
....................   #else 
....................    lcdtris.data = 0x0; 
01A8:  MOVLW  0F
01A9:  BSF    03.5
01AA:  ANDWF  08,W
01AB:  MOVWF  08
....................   #endif 
....................  #endif 
....................  
....................    return( (high<<4) | low); 
01AC:  BCF    03.5
01AD:  SWAPF  47,W
01AE:  MOVWF  77
01AF:  MOVLW  F0
01B0:  ANDWF  77,F
01B1:  MOVF   77,W
01B2:  IORWF  46,W
01B3:  MOVWF  78
.................... } 
....................  
.................... unsigned int8 lcd_read_nibble(void) 
.................... { 
....................   #if (defined(LCD_DATA4) && defined(LCD_DATA5) && defined(LCD_DATA6) && defined(LCD_DATA7)) 
....................    unsigned int8 n = 0x00; 
....................  
....................    /* Read the data port */ 
....................    n |= input(LCD_DATA4); 
....................    n |= input(LCD_DATA5) << 1; 
....................    n |= input(LCD_DATA6) << 2; 
....................    n |= input(LCD_DATA7) << 3; 
....................     
....................    return(n); 
....................   #else 
....................    return(lcd.data); 
*
0187:  MOVF   08,W
0188:  MOVWF  77
0189:  SWAPF  08,W
018A:  ANDLW  0F
018B:  MOVWF  78
....................   #endif 
018C:  RETURN
.................... } 
....................  
.................... void lcd_send_nibble(unsigned int8 n) 
.................... { 
....................   #if (defined(LCD_DATA4) && defined(LCD_DATA5) && defined(LCD_DATA6) && defined(LCD_DATA7)) 
....................    /* Write to the data port */ 
....................    output_bit(LCD_DATA4, bit_test(n, 0)); 
....................    output_bit(LCD_DATA5, bit_test(n, 1)); 
....................    output_bit(LCD_DATA6, bit_test(n, 2)); 
....................    output_bit(LCD_DATA7, bit_test(n, 3)); 
....................   #else       
....................    lcdlat.data = n; 
*
017B:  SWAPF  47,W
017C:  ANDLW  F0
017D:  MOVWF  77
017E:  MOVLW  0F
017F:  ANDWF  08,W
0180:  IORWF  77,W
0181:  MOVWF  08
....................   #endif 
....................        
....................    delay_cycles(1); 
0182:  NOP
....................    lcd_output_enable(1); 
0183:  BSF    08.0
....................    delay_us(2); 
0184:  GOTO   185
....................    lcd_output_enable(0); 
0185:  BCF    08.0
0186:  RETURN
.................... } 
....................  
.................... void lcd_send_byte(unsigned int8 address, unsigned int8 n) 
.................... { 
....................   #if defined(__PCB__) 
....................    set_tris_lcd(LCD_OUTPUT_MAP); 
....................   #else 
....................    lcd_enable_tris(); 
*
018D:  BSF    03.5
018E:  BCF    08.0
....................    lcd_rs_tris(); 
018F:  BCF    08.1
....................    lcd_rw_tris(); 
0190:  BCF    08.2
....................   #endif 
....................  
....................    lcd_output_rs(0); 
0191:  BCF    03.5
0192:  BCF    08.1
....................    while ( bit_test(lcd_read_byte(),7) ) ; 
*
01B4:  MOVF   78,W
01B5:  MOVWF  46
01B6:  BTFSC  46.7
01B7:  GOTO   193
....................    lcd_output_rs(address); 
01B8:  BTFSS  44.0
01B9:  BCF    08.1
01BA:  BTFSC  44.0
01BB:  BSF    08.1
....................    delay_cycles(1); 
01BC:  NOP
....................    lcd_output_rw(0); 
01BD:  BCF    08.2
....................    delay_cycles(1); 
01BE:  NOP
....................    lcd_output_enable(0); 
01BF:  BCF    08.0
....................    lcd_send_nibble(n >> 4); 
01C0:  SWAPF  45,W
01C1:  MOVWF  46
01C2:  MOVLW  0F
01C3:  ANDWF  46,F
01C4:  MOVF   46,W
01C5:  MOVWF  47
01C6:  CALL   17B
....................    lcd_send_nibble(n & 0xf); 
01C7:  MOVF   45,W
01C8:  ANDLW  0F
01C9:  MOVWF  46
01CA:  MOVWF  47
01CB:  CALL   17B
01CC:  RETURN
.................... } 
....................  
.................... #if defined(LCD_EXTENDED_NEWLINE) 
.................... unsigned int8 g_LcdX, g_LcdY; 
.................... #endif 
....................  
.................... void lcd_init(void)  
.................... { 
....................    unsigned int8 i; 
....................    unsigned int8 LCD_INIT_STRING[4] = {0x20 | (LCD_TYPE << 2), 0xc, 1, 6}; 
01CD:  MOVLW  28
01CE:  MOVWF  33
01CF:  MOVLW  0C
01D0:  MOVWF  34
01D1:  MOVLW  01
01D2:  MOVWF  35
01D3:  MOVLW  06
01D4:  MOVWF  36
....................                              // These bytes need to be sent to the LCD 
....................                              // to start it up. 
....................     
....................  
....................    lcd_output_enable(0); 
01D5:  BCF    08.0
....................    lcd_output_rs(0); 
01D6:  BCF    08.1
....................    lcd_output_rw(0); 
01D7:  BCF    08.2
....................  
....................  #if defined(__PCB__) 
....................    set_tris_lcd(LCD_OUTPUT_MAP); 
....................  #else 
....................   #if (defined(LCD_DATA4) && defined(LCD_DATA5) && defined(LCD_DATA6) && defined(LCD_DATA7)) 
....................    output_drive(LCD_DATA4); 
....................    output_drive(LCD_DATA5); 
....................    output_drive(LCD_DATA6); 
....................    output_drive(LCD_DATA7); 
....................   #else 
....................    lcdtris.data = 0x0; 
01D8:  MOVLW  0F
01D9:  BSF    03.5
01DA:  ANDWF  08,W
01DB:  MOVWF  08
....................   #endif 
....................    lcd_enable_tris(); 
01DC:  BCF    08.0
....................    lcd_rs_tris(); 
01DD:  BCF    08.1
....................    lcd_rw_tris(); 
01DE:  BCF    08.2
....................  #endif 
....................      
....................    delay_ms(15); 
01DF:  MOVLW  0F
01E0:  BCF    03.5
01E1:  MOVWF  40
01E2:  CALL   166
....................    for(i=1;i<=3;++i) 
01E3:  MOVLW  01
01E4:  MOVWF  32
01E5:  MOVF   32,W
01E6:  SUBLW  03
01E7:  BTFSS  03.0
01E8:  GOTO   1F1
....................    { 
....................        lcd_send_nibble(3); 
01E9:  MOVLW  03
01EA:  MOVWF  47
01EB:  CALL   17B
....................        delay_ms(5); 
01EC:  MOVLW  05
01ED:  MOVWF  40
01EE:  CALL   166
01EF:  INCF   32,F
01F0:  GOTO   1E5
....................    } 
....................     
....................    lcd_send_nibble(2); 
01F1:  MOVLW  02
01F2:  MOVWF  47
01F3:  CALL   17B
....................    delay_ms(5); 
01F4:  MOVLW  05
01F5:  MOVWF  40
01F6:  CALL   166
....................    for(i=0;i<=3;++i) 
01F7:  CLRF   32
01F8:  MOVF   32,W
01F9:  SUBLW  03
01FA:  BTFSS  03.0
01FB:  GOTO   208
....................       lcd_send_byte(0,LCD_INIT_STRING[i]); 
01FC:  MOVLW  33
01FD:  ADDWF  32,W
01FE:  MOVWF  04
01FF:  BCF    03.7
0200:  MOVF   00,W
0201:  MOVWF  37
0202:  CLRF   44
0203:  MOVF   37,W
0204:  MOVWF  45
0205:  CALL   18D
....................  
....................   #if defined(LCD_EXTENDED_NEWLINE) 
0206:  INCF   32,F
0207:  GOTO   1F8
0208:  BSF    0A.3
0209:  BCF    0A.4
020A:  GOTO   040 (RETURN)
....................    g_LcdX = 0; 
....................    g_LcdY = 0; 
....................   #endif 
.................... } 
....................  
.................... void lcd_gotoxy(unsigned int8 x, unsigned int8 y) 
.................... { 
....................    unsigned int8 address; 
....................     
....................    if(y!=1) 
020B:  DECFSZ 41,W
020C:  GOTO   20E
020D:  GOTO   211
....................       address=LCD_LINE_TWO; 
020E:  MOVLW  40
020F:  MOVWF  42
0210:  GOTO   212
....................    else 
....................       address=0; 
0211:  CLRF   42
....................       
....................    address+=x-1; 
0212:  MOVLW  01
0213:  SUBWF  40,W
0214:  ADDWF  42,F
....................    lcd_send_byte(0,0x80|address); 
0215:  MOVF   42,W
0216:  IORLW  80
0217:  MOVWF  43
0218:  CLRF   44
0219:  MOVF   43,W
021A:  MOVWF  45
021B:  CALL   18D
....................  
....................   #if defined(LCD_EXTENDED_NEWLINE) 
021C:  RETURN
....................    g_LcdX = x - 1; 
....................    g_LcdY = y - 1; 
....................   #endif 
.................... } 
....................  
.................... void lcd_putc(char c) 
.................... { 
....................    switch (c) 
021D:  MOVF   3F,W
021E:  XORLW  07
021F:  BTFSC  03.2
0220:  GOTO   22B
0221:  XORLW  0B
0222:  BTFSC  03.2
0223:  GOTO   230
0224:  XORLW  06
0225:  BTFSC  03.2
0226:  GOTO   238
0227:  XORLW  02
0228:  BTFSC  03.2
0229:  GOTO   23E
022A:  GOTO   243
....................    { 
....................       case '\a'   :  lcd_gotoxy(1,1);     break; 
022B:  MOVLW  01
022C:  MOVWF  40
022D:  MOVWF  41
022E:  CALL   20B
022F:  GOTO   248
....................  
....................       case '\f'   :  lcd_send_byte(0,1); 
0230:  CLRF   44
0231:  MOVLW  01
0232:  MOVWF  45
0233:  CALL   18D
....................                      delay_ms(2); 
0234:  MOVLW  02
0235:  MOVWF  40
0236:  CALL   166
....................                     #if defined(LCD_EXTENDED_NEWLINE) 
....................                      g_LcdX = 0; 
....................                      g_LcdY = 0; 
....................                     #endif 
....................                      break; 
0237:  GOTO   248
....................  
....................      #if defined(LCD_EXTENDED_NEWLINE) 
....................       case '\r'   :  lcd_gotoxy(1, g_LcdY+1);   break; 
....................       case '\n'   : 
....................          while (g_LcdX++ < LCD_LINE_LENGTH) 
....................          { 
....................             lcd_send_byte(1, ' '); 
....................          } 
....................          lcd_gotoxy(1, g_LcdY+2); 
....................          break; 
....................      #else 
....................       case '\n'   : lcd_gotoxy(1,2);        break; 
0238:  MOVLW  01
0239:  MOVWF  40
023A:  MOVLW  02
023B:  MOVWF  41
023C:  CALL   20B
023D:  GOTO   248
....................      #endif 
....................       
....................       case '\b'   : lcd_send_byte(0,0x10);  break; 
023E:  CLRF   44
023F:  MOVLW  10
0240:  MOVWF  45
0241:  CALL   18D
0242:  GOTO   248
....................       
....................      #if defined(LCD_EXTENDED_NEWLINE) 
....................       default     :  
....................          if (g_LcdX < LCD_LINE_LENGTH) 
....................          { 
....................             lcd_send_byte(1, c); 
....................             g_LcdX++; 
....................          } 
....................          break; 
....................      #else 
....................       default     : lcd_send_byte(1,c);     break; 
0243:  MOVLW  01
0244:  MOVWF  44
0245:  MOVF   3F,W
0246:  MOVWF  45
0247:  CALL   18D
....................      #endif 
....................    } 
0248:  RETURN
.................... } 
....................   
.................... char lcd_getc(unsigned int8 x, unsigned int8 y) 
.................... { 
....................    char value; 
....................  
....................    lcd_gotoxy(x,y); 
....................    while ( bit_test(lcd_read_byte(),7) ); // wait until busy flag is low 
....................    lcd_output_rs(1); 
....................    value = lcd_read_byte(); 
....................    lcd_output_rs(0); 
....................     
....................    return(value); 
.................... } 
....................  
.................... // write a custom character to the ram 
.................... // which is 0-7 and specifies which character array we are modifying. 
.................... // ptr points to an array of 8 bytes, where each byte is the next row of 
.................... //    pixels.  only bits 0-4 are used.  the last row is the cursor row, and 
.................... //    usually you will want to leave this byte 0x00. 
.................... void lcd_set_cgram_char(unsigned int8 which, unsigned int8 *ptr) 
.................... { 
....................    unsigned int i; 
....................  
....................    which <<= 3; 
....................    which &= 0x38; 
....................  
....................    lcd_send_byte(0, 0x40 | which);  //set cgram address 
....................  
....................    for(i=0; i<8; i++) 
....................    { 
....................       lcd_send_byte(1, *ptr++); 
....................    } 
....................    
....................    #if defined(LCD_EXTENDED_NEWLINE) 
....................     lcd_gotoxy(g_LcdX+1, g_LcdY+1);  //set ddram address 
....................    #endif 
.................... } 
....................  
.................... void lcd_cursor_on(int1 on) 
.................... { 
....................    if (on) 
....................    { 
....................       lcd_send_byte(0,0x0F);           //turn LCD cursor ON 
....................    } 
....................    else 
....................    { 
....................       lcd_send_byte(0,0x0C);           //turn LCD cursor OFF 
....................    } 
.................... } 
....................  
.................... #endif 
....................  
.................... //Consntantes de conversion 
.................... #define angulo 0.3571428571 
.................... #define aceleracion 0.79365079365079 
....................  
....................  
.................... void main(){ 
*
0800:  MOVF   03,W
0801:  ANDLW  1F
0802:  MOVWF  03
0803:  MOVLW  61
0804:  BSF    03.5
0805:  MOVWF  0F
0806:  MOVF   0F,W
0807:  BCF    03.5
0808:  CLRF   20
0809:  BSF    03.5
080A:  BSF    03.6
080B:  BCF    07.3
080C:  MOVLW  19
080D:  BCF    03.6
080E:  MOVWF  19
080F:  MOVLW  A6
0810:  MOVWF  18
0811:  MOVLW  90
0812:  BCF    03.5
0813:  MOVWF  18
0814:  MOVLW  FF
0815:  MOVWF  21
0816:  BSF    03.5
0817:  BSF    03.6
0818:  MOVF   09,W
0819:  ANDLW  C0
081A:  MOVWF  09
081B:  BCF    03.6
081C:  BCF    1F.4
081D:  BCF    1F.5
081E:  MOVLW  00
081F:  BSF    03.6
0820:  MOVWF  08
0821:  BCF    03.5
0822:  CLRF   07
0823:  CLRF   08
0824:  CLRF   09
0825:  BCF    03.7
....................    //Variable donde se almacenara el valor del ADC giro 
....................    int8 iAdcGiro; 
....................    int8 iAdcAceleracion; 
....................    //variables para realizar conversiones 
....................    float cGrados; 
....................    float cPWM; 
....................    //variables para la modulacion del PWM 
....................    int8 valor_pwm_der; 
....................    int8 valor_pwm_izq; 
....................    //variable para el control semiautomatico 
....................    char giro; 
....................    char marcha; 
....................    //configuraciones del pwm 
....................    setup_ccp1(CCP_PWM); // se configura el pin ccp1 como PWD 
0826:  BCF    03.6
0827:  BCF    21.2
0828:  MOVF   21,W
0829:  BSF    03.5
082A:  MOVWF  07
082B:  BCF    03.5
082C:  BCF    07.2
082D:  MOVLW  0C
082E:  MOVWF  17
082F:  BSF    03.5
0830:  CLRF   1B
0831:  CLRF   1C
0832:  MOVLW  01
0833:  MOVWF  1D
....................    setup_timer_2(T2_DIV_BY_16, 255,1); 
0834:  MOVLW  00
0835:  MOVWF  78
0836:  IORLW  06
0837:  BCF    03.5
0838:  MOVWF  12
0839:  MOVLW  FF
083A:  BSF    03.5
083B:  MOVWF  12
....................    set_pwm1_duty(0); // se pone el ciclo de trabajo en 0 para su inicializacion (0%) 
083C:  BCF    03.5
083D:  CLRF   15
....................   // se declara variable para modo de trabajo 
....................    char modo; 
....................    // variable para salir de un modo 
....................    char salir; 
....................    // se inicializa la funcion del LCD 
....................    lcd_init();  
083E:  BCF    0A.3
083F:  GOTO   1CD
0840:  BSF    0A.3
....................     
....................     
....................    //Se definen los puertos ADC 
....................    setup_adc_ports(sAN0 | sAN1);   
0841:  BSF    03.5
0842:  BSF    03.6
0843:  MOVF   09,W
0844:  ANDLW  C0
0845:  MOVWF  09
0846:  BCF    03.6
0847:  BCF    1F.4
0848:  BCF    1F.5
0849:  MOVLW  03
084A:  BSF    03.6
084B:  MOVWF  08
....................    //Se establece el reloj interno del ADC 
....................    setup_adc(ADC_CLOCK_INTERNAL); 
084C:  BCF    03.5
084D:  BCF    03.6
084E:  BSF    1F.6
084F:  BSF    1F.7
0850:  BSF    03.5
0851:  BCF    1F.7
0852:  BCF    03.5
0853:  BSF    1F.0
....................    //Imprimir mensaje de preparacion en la LCD 
....................    lcd_putc("\fReady...\n"); 
0854:  MOVLW  04
0855:  BSF    03.6
0856:  MOVWF  0D
0857:  MOVLW  00
0858:  MOVWF  0F
0859:  BCF    0A.3
085A:  BCF    03.6
085B:  CALL   249
085C:  BSF    0A.3
....................    delay_ms(2000); 
085D:  MOVLW  08
085E:  MOVWF  32
085F:  MOVLW  FA
0860:  MOVWF  40
0861:  BCF    0A.3
0862:  CALL   166
0863:  BSF    0A.3
0864:  DECFSZ 32,F
0865:  GOTO   05F
....................    //Comienzo del programa 
....................    while(TRUE) 
....................    {      
....................       //Limpiar la LCD 
....................       printf(lcd_putc, "\f"); 
0866:  MOVLW  0C
0867:  MOVWF  3F
0868:  BCF    0A.3
0869:  CALL   21D
086A:  BSF    0A.3
....................        
....................       //Primer solicitud de Modo de trabajo 
....................       while(true) 
....................       { 
....................          printf(lcd_putc,"\f"); 
086B:  MOVLW  0C
086C:  MOVWF  3F
086D:  BCF    0A.3
086E:  CALL   21D
086F:  BSF    0A.3
....................           
....................          //apagar los actuadores 
....................                 
....................          output_low(PIN_C4); 
0870:  BCF    21.4
0871:  MOVF   21,W
0872:  BSF    03.5
0873:  MOVWF  07
0874:  BCF    03.5
0875:  BCF    07.4
....................          output_low(PIN_C5); 
0876:  BCF    21.5
0877:  MOVF   21,W
0878:  BSF    03.5
0879:  MOVWF  07
087A:  BCF    03.5
087B:  BCF    07.5
....................          set_pwm1_duty(0); 
087C:  CLRF   15
....................                 
....................          output_low(PIN_C0); 
087D:  BCF    21.0
087E:  MOVF   21,W
087F:  BSF    03.5
0880:  MOVWF  07
0881:  BCF    03.5
0882:  BCF    07.0
....................          output_low(PIN_C1); 
0883:  BCF    21.1
0884:  MOVF   21,W
0885:  BSF    03.5
0886:  MOVWF  07
0887:  BCF    03.5
0888:  BCF    07.1
....................           
....................          printf("Ingrese un modo de trabajo: \n\r"); 
0889:  MOVLW  0A
088A:  BSF    03.6
088B:  MOVWF  0D
088C:  MOVLW  00
088D:  MOVWF  0F
088E:  BCF    0A.3
088F:  BCF    03.6
0890:  CALL   29F
0891:  BSF    0A.3
....................          printf("a: Manual\n\r"); 
0892:  MOVLW  1A
0893:  BSF    03.6
0894:  MOVWF  0D
0895:  MOVLW  00
0896:  MOVWF  0F
0897:  BCF    0A.3
0898:  BCF    03.6
0899:  CALL   29F
089A:  BSF    0A.3
....................          printf("b: Semiautomatico (Monitor serie)\n\r"); 
089B:  MOVLW  20
089C:  BSF    03.6
089D:  MOVWF  0D
089E:  MOVLW  00
089F:  MOVWF  0F
08A0:  BCF    0A.3
08A1:  BCF    03.6
08A2:  CALL   29F
08A3:  BSF    0A.3
....................          lcd_gotoxy(1,1); 
08A4:  MOVLW  01
08A5:  MOVWF  40
08A6:  MOVWF  41
08A7:  BCF    0A.3
08A8:  CALL   20B
08A9:  BSF    0A.3
....................          printf(lcd_putc,"Seleccion modo"); 
08AA:  MOVLW  32
08AB:  BSF    03.6
08AC:  MOVWF  0D
08AD:  MOVLW  00
08AE:  MOVWF  0F
08AF:  BCF    0A.3
08B0:  BCF    03.6
08B1:  CALL   249
08B2:  BSF    0A.3
....................          lcd_gotoxy(1,2); 
08B3:  MOVLW  01
08B4:  MOVWF  40
08B5:  MOVLW  02
08B6:  MOVWF  41
08B7:  BCF    0A.3
08B8:  CALL   20B
08B9:  BSF    0A.3
....................          printf(lcd_putc,"a:Manu | b:Semi"); 
08BA:  MOVLW  3A
08BB:  BSF    03.6
08BC:  MOVWF  0D
08BD:  MOVLW  00
08BE:  MOVWF  0F
08BF:  BCF    0A.3
08C0:  BCF    03.6
08C1:  CALL   249
08C2:  BSF    0A.3
....................          //ingreso de modo de trabajo 
....................          modo = getch(); 
08C3:  BCF    0A.3
08C4:  CALL   2F7
08C5:  BSF    0A.3
08C6:  MOVF   78,W
08C7:  MOVWF  30
....................          printf("Valor ingresado: %c\n\r", modo); 
08C8:  MOVLW  42
08C9:  BSF    03.6
08CA:  MOVWF  0D
08CB:  MOVLW  00
08CC:  MOVWF  0F
08CD:  BCF    03.0
08CE:  MOVLW  11
08CF:  BCF    03.6
08D0:  MOVWF  32
08D1:  BCF    0A.3
08D2:  CALL   312
08D3:  BSF    0A.3
08D4:  MOVF   30,W
08D5:  BTFSS  0C.4
08D6:  GOTO   0D5
08D7:  MOVWF  19
08D8:  MOVLW  0A
08D9:  BTFSS  0C.4
08DA:  GOTO   0D9
08DB:  MOVWF  19
08DC:  MOVLW  0D
08DD:  BTFSS  0C.4
08DE:  GOTO   0DD
08DF:  MOVWF  19
....................          if(modo == 'a' || modo == 'b'){ 
08E0:  MOVF   30,W
08E1:  SUBLW  61
08E2:  BTFSC  03.2
08E3:  GOTO   0E7
08E4:  MOVF   30,W
08E5:  SUBLW  62
08E6:  BTFSC  03.2
....................             break; 
08E7:  GOTO   0F2
....................          } 
....................           
....................          delay_ms(500); 
08E8:  MOVLW  02
08E9:  MOVWF  32
08EA:  MOVLW  FA
08EB:  MOVWF  40
08EC:  BCF    0A.3
08ED:  CALL   166
08EE:  BSF    0A.3
08EF:  DECFSZ 32,F
08F0:  GOTO   0EA
08F1:  GOTO   06B
....................       } 
....................        
....................       //En caso de modo A: ADC 
....................       switch(modo){ 
08F2:  MOVF   30,W
08F3:  XORLW  61
08F4:  BTFSC  03.2
08F5:  GOTO   0FA
08F6:  XORLW  03
08F7:  BTFSC  03.2
08F8:  GOTO   50B
08F9:  GOTO   5A7
....................          case 'a': 
....................          { 
....................              
....................             while(true) 
....................             { 
....................                //Lectura de los sensores 
....................                set_adc_channel(0); 
08FA:  MOVLW  00
08FB:  MOVWF  78
08FC:  MOVF   1F,W
08FD:  ANDLW  C3
08FE:  IORWF  78,W
08FF:  MOVWF  1F
....................                delay_ms(10); 
0900:  MOVLW  0A
0901:  MOVWF  40
0902:  BCF    0A.3
0903:  CALL   166
0904:  BSF    0A.3
....................                iAdcGiro = read_adc(); 
0905:  BSF    1F.1
0906:  BTFSC  1F.1
0907:  GOTO   106
0908:  MOVF   1E,W
0909:  MOVWF  22
....................                set_adc_channel(1); 
090A:  MOVLW  04
090B:  MOVWF  78
090C:  MOVF   1F,W
090D:  ANDLW  C3
090E:  IORWF  78,W
090F:  MOVWF  1F
....................                delay_ms(10); 
0910:  MOVLW  0A
0911:  MOVWF  40
0912:  BCF    0A.3
0913:  CALL   166
0914:  BSF    0A.3
....................                iAdcAceleracion = read_adc(); 
0915:  BSF    1F.1
0916:  BTFSC  1F.1
0917:  GOTO   116
0918:  MOVF   1E,W
0919:  MOVWF  23
....................                 
....................                //limpiar pantalla 
....................                printf(lcd_putc, "\f"); 
091A:  MOVLW  0C
091B:  MOVWF  3F
091C:  BCF    0A.3
091D:  CALL   21D
091E:  BSF    0A.3
....................                 
....................               
....................                 
....................                  
....................                 
....................                //imprimir en LCD 
....................                lcd_gotoxy(1,1); 
091F:  MOVLW  01
0920:  MOVWF  40
0921:  MOVWF  41
0922:  BCF    0A.3
0923:  CALL   20B
0924:  BSF    0A.3
....................                printf(lcd_putc, "M:Ma"); 
0925:  MOVLW  4D
0926:  BSF    03.6
0927:  MOVWF  0D
0928:  MOVLW  00
0929:  MOVWF  0F
092A:  BCF    0A.3
092B:  BCF    03.6
092C:  CALL   249
092D:  BSF    0A.3
....................                //imprimir en monitor serie 
....................                printf("Modo de trabajo a: Manual\n\r"); 
092E:  MOVLW  50
092F:  BSF    03.6
0930:  MOVWF  0D
0931:  MOVLW  00
0932:  MOVWF  0F
0933:  BCF    0A.3
0934:  BCF    03.6
0935:  CALL   29F
0936:  BSF    0A.3
....................                printf("Lectura S1: %u\n\r", iAdcGiro); 
0937:  MOVLW  5E
0938:  BSF    03.6
0939:  MOVWF  0D
093A:  MOVLW  00
093B:  MOVWF  0F
093C:  BCF    03.0
093D:  MOVLW  0C
093E:  BCF    03.6
093F:  MOVWF  32
0940:  BCF    0A.3
0941:  CALL   312
0942:  BSF    0A.3
0943:  MOVF   22,W
0944:  MOVWF  32
0945:  MOVLW  1B
0946:  MOVWF  33
0947:  BCF    0A.3
0948:  CALL   380
0949:  BSF    0A.3
094A:  MOVLW  0A
094B:  BTFSS  0C.4
094C:  GOTO   14B
094D:  MOVWF  19
094E:  MOVLW  0D
094F:  BTFSS  0C.4
0950:  GOTO   14F
0951:  MOVWF  19
....................                printf("Lectura S1: %u\n\r", iAdcAceleracion); 
0952:  MOVLW  67
0953:  BSF    03.6
0954:  MOVWF  0D
0955:  MOVLW  00
0956:  MOVWF  0F
0957:  BCF    03.0
0958:  MOVLW  0C
0959:  BCF    03.6
095A:  MOVWF  32
095B:  BCF    0A.3
095C:  CALL   312
095D:  BSF    0A.3
095E:  MOVF   23,W
095F:  MOVWF  32
0960:  MOVLW  1B
0961:  MOVWF  33
0962:  BCF    0A.3
0963:  CALL   380
0964:  BSF    0A.3
0965:  MOVLW  0A
0966:  BTFSS  0C.4
0967:  GOTO   166
0968:  MOVWF  19
0969:  MOVLW  0D
096A:  BTFSS  0C.4
096B:  GOTO   16A
096C:  MOVWF  19
....................                //Validar giro 
....................                if(iAdcGiro == 127 || iAdcGiro == 128) 
096D:  MOVF   22,W
096E:  SUBLW  7F
096F:  BTFSC  03.2
0970:  GOTO   175
0971:  MOVF   22,W
0972:  SUBLW  80
0973:  BTFSS  03.2
0974:  GOTO   1E8
....................                { 
....................                   //Imprimir direccion de giro 
....................                   lcd_gotoxy(6,1); 
0975:  MOVLW  06
0976:  MOVWF  40
0977:  MOVLW  01
0978:  MOVWF  41
0979:  BCF    0A.3
097A:  CALL   20B
097B:  BSF    0A.3
....................                   printf(lcd_putc, "D:Ce"); 
097C:  MOVLW  70
097D:  BSF    03.6
097E:  MOVWF  0D
097F:  MOVLW  00
0980:  MOVWF  0F
0981:  BCF    0A.3
0982:  BCF    03.6
0983:  CALL   249
0984:  BSF    0A.3
....................                   lcd_gotoxy(11,1); 
0985:  MOVLW  0B
0986:  MOVWF  40
0987:  MOVLW  01
0988:  MOVWF  41
0989:  BCF    0A.3
098A:  CALL   20B
098B:  BSF    0A.3
....................                   printf(lcd_putc, "%.2f%c", 0.00,223); 
098C:  MOVLW  89
098D:  MOVWF  04
098E:  CLRF   35
098F:  CLRF   34
0990:  CLRF   33
0991:  CLRF   32
0992:  MOVLW  02
0993:  MOVWF  36
0994:  BCF    0A.3
0995:  CALL   49B
0996:  BSF    0A.3
0997:  MOVLW  DF
0998:  MOVWF  3F
0999:  BCF    0A.3
099A:  CALL   21D
099B:  BSF    0A.3
....................                   //Imprimir en puerto serie 
....................                   printf("S1: %u\n\r", iAdcGiro); 
099C:  MOVLW  73
099D:  BSF    03.6
099E:  MOVWF  0D
099F:  MOVLW  00
09A0:  MOVWF  0F
09A1:  BCF    03.0
09A2:  MOVLW  04
09A3:  BCF    03.6
09A4:  MOVWF  32
09A5:  BCF    0A.3
09A6:  CALL   312
09A7:  BSF    0A.3
09A8:  MOVF   22,W
09A9:  MOVWF  32
09AA:  MOVLW  1B
09AB:  MOVWF  33
09AC:  BCF    0A.3
09AD:  CALL   380
09AE:  BSF    0A.3
09AF:  MOVLW  0A
09B0:  BTFSS  0C.4
09B1:  GOTO   1B0
09B2:  MOVWF  19
09B3:  MOVLW  0D
09B4:  BTFSS  0C.4
09B5:  GOTO   1B4
09B6:  MOVWF  19
....................                   printf("Direccion: Centro\n\r"); 
09B7:  MOVLW  78
09B8:  BSF    03.6
09B9:  MOVWF  0D
09BA:  MOVLW  00
09BB:  MOVWF  0F
09BC:  BCF    0A.3
09BD:  BCF    03.6
09BE:  CALL   29F
09BF:  BSF    0A.3
....................                   printf("Grados: %.2f%c", 0.00,223); 
09C0:  MOVLW  82
09C1:  BSF    03.6
09C2:  MOVWF  0D
09C3:  MOVLW  00
09C4:  MOVWF  0F
09C5:  BCF    03.0
09C6:  MOVLW  08
09C7:  BCF    03.6
09C8:  MOVWF  32
09C9:  BCF    0A.3
09CA:  CALL   312
09CB:  BSF    0A.3
09CC:  MOVLW  89
09CD:  MOVWF  04
09CE:  CLRF   35
09CF:  CLRF   34
09D0:  CLRF   33
09D1:  CLRF   32
09D2:  MOVLW  02
09D3:  MOVWF  36
09D4:  BCF    0A.3
09D5:  CALL   55E
09D6:  BSF    0A.3
09D7:  MOVLW  DF
09D8:  BTFSS  0C.4
09D9:  GOTO   1D8
09DA:  MOVWF  19
....................                   //actuadores 
....................                   output_high(PIN_C0); 
09DB:  BCF    21.0
09DC:  MOVF   21,W
09DD:  BSF    03.5
09DE:  MOVWF  07
09DF:  BCF    03.5
09E0:  BSF    07.0
....................                   output_high(PIN_C1); 
09E1:  BCF    21.1
09E2:  MOVF   21,W
09E3:  BSF    03.5
09E4:  MOVWF  07
09E5:  BCF    03.5
09E6:  BSF    07.1
....................                    
....................                    
....................                }else if(iAdcGiro > 128) 
09E7:  GOTO   335
09E8:  MOVF   22,W
09E9:  SUBLW  80
09EA:  BTFSC  03.0
09EB:  GOTO   291
....................                { 
....................                    
....................                   //Imprimir direccion de giro 
....................                   lcd_gotoxy(6,1); 
09EC:  MOVLW  06
09ED:  MOVWF  40
09EE:  MOVLW  01
09EF:  MOVWF  41
09F0:  BCF    0A.3
09F1:  CALL   20B
09F2:  BSF    0A.3
....................                   printf(lcd_putc, "D:De"); 
09F3:  MOVLW  8A
09F4:  BSF    03.6
09F5:  MOVWF  0D
09F6:  MOVLW  00
09F7:  MOVWF  0F
09F8:  BCF    0A.3
09F9:  BCF    03.6
09FA:  CALL   249
09FB:  BSF    0A.3
....................                   //conversion 
....................                   cGrados = (iAdcGiro - 126) * angulo ; 
09FC:  MOVLW  7E
09FD:  SUBWF  22,W
09FE:  CLRF   34
09FF:  MOVWF  33
0A00:  BCF    0A.3
0A01:  CALL   625
0A02:  BSF    0A.3
0A03:  MOVF   7A,W
0A04:  MOVWF  42
0A05:  MOVF   79,W
0A06:  MOVWF  41
0A07:  MOVF   78,W
0A08:  MOVWF  40
0A09:  MOVF   77,W
0A0A:  MOVWF  3F
0A0B:  MOVLW  6E
0A0C:  MOVWF  46
0A0D:  MOVLW  DB
0A0E:  MOVWF  45
0A0F:  MOVLW  36
0A10:  MOVWF  44
0A11:  MOVLW  7D
0A12:  MOVWF  43
0A13:  BCF    0A.3
0A14:  CALL   3B8
0A15:  BSF    0A.3
0A16:  MOVF   7A,W
0A17:  MOVWF  27
0A18:  MOVF   79,W
0A19:  MOVWF  26
0A1A:  MOVF   78,W
0A1B:  MOVWF  25
0A1C:  MOVF   77,W
0A1D:  MOVWF  24
....................                   lcd_gotoxy(11,1); 
0A1E:  MOVLW  0B
0A1F:  MOVWF  40
0A20:  MOVLW  01
0A21:  MOVWF  41
0A22:  BCF    0A.3
0A23:  CALL   20B
0A24:  BSF    0A.3
....................                   printf(lcd_putc, "%.2f%c", cGrados,223); 
0A25:  MOVLW  89
0A26:  MOVWF  04
0A27:  MOVF   27,W
0A28:  MOVWF  35
0A29:  MOVF   26,W
0A2A:  MOVWF  34
0A2B:  MOVF   25,W
0A2C:  MOVWF  33
0A2D:  MOVF   24,W
0A2E:  MOVWF  32
0A2F:  MOVLW  02
0A30:  MOVWF  36
0A31:  BCF    0A.3
0A32:  CALL   49B
0A33:  BSF    0A.3
0A34:  MOVLW  DF
0A35:  MOVWF  3F
0A36:  BCF    0A.3
0A37:  CALL   21D
0A38:  BSF    0A.3
....................                   //Imprimir en puerto serie 
....................                   printf("S1: %u\n\r", iAdcGiro); 
0A39:  MOVLW  8D
0A3A:  BSF    03.6
0A3B:  MOVWF  0D
0A3C:  MOVLW  00
0A3D:  MOVWF  0F
0A3E:  BCF    03.0
0A3F:  MOVLW  04
0A40:  BCF    03.6
0A41:  MOVWF  32
0A42:  BCF    0A.3
0A43:  CALL   312
0A44:  BSF    0A.3
0A45:  MOVF   22,W
0A46:  MOVWF  32
0A47:  MOVLW  1B
0A48:  MOVWF  33
0A49:  BCF    0A.3
0A4A:  CALL   380
0A4B:  BSF    0A.3
0A4C:  MOVLW  0A
0A4D:  BTFSS  0C.4
0A4E:  GOTO   24D
0A4F:  MOVWF  19
0A50:  MOVLW  0D
0A51:  BTFSS  0C.4
0A52:  GOTO   251
0A53:  MOVWF  19
....................                   printf("Direccion: Derecha\n\r"); 
0A54:  MOVLW  92
0A55:  BSF    03.6
0A56:  MOVWF  0D
0A57:  MOVLW  00
0A58:  MOVWF  0F
0A59:  BCF    0A.3
0A5A:  BCF    03.6
0A5B:  CALL   29F
0A5C:  BSF    0A.3
....................                   printf("Grados: %.2f%c\n\r", cGrados,223); 
0A5D:  MOVLW  9D
0A5E:  BSF    03.6
0A5F:  MOVWF  0D
0A60:  MOVLW  00
0A61:  MOVWF  0F
0A62:  BCF    03.0
0A63:  MOVLW  08
0A64:  BCF    03.6
0A65:  MOVWF  32
0A66:  BCF    0A.3
0A67:  CALL   312
0A68:  BSF    0A.3
0A69:  MOVLW  89
0A6A:  MOVWF  04
0A6B:  MOVF   27,W
0A6C:  MOVWF  35
0A6D:  MOVF   26,W
0A6E:  MOVWF  34
0A6F:  MOVF   25,W
0A70:  MOVWF  33
0A71:  MOVF   24,W
0A72:  MOVWF  32
0A73:  MOVLW  02
0A74:  MOVWF  36
0A75:  BCF    0A.3
0A76:  CALL   55E
0A77:  BSF    0A.3
0A78:  MOVLW  DF
0A79:  BTFSS  0C.4
0A7A:  GOTO   279
0A7B:  MOVWF  19
0A7C:  MOVLW  0A
0A7D:  BTFSS  0C.4
0A7E:  GOTO   27D
0A7F:  MOVWF  19
0A80:  MOVLW  0D
0A81:  BTFSS  0C.4
0A82:  GOTO   281
0A83:  MOVWF  19
....................                   //actuadores 
....................                   output_low(PIN_C0); 
0A84:  BCF    21.0
0A85:  MOVF   21,W
0A86:  BSF    03.5
0A87:  MOVWF  07
0A88:  BCF    03.5
0A89:  BCF    07.0
....................                   output_high(PIN_C1); 
0A8A:  BCF    21.1
0A8B:  MOVF   21,W
0A8C:  BSF    03.5
0A8D:  MOVWF  07
0A8E:  BCF    03.5
0A8F:  BSF    07.1
....................                    
....................                }else 
0A90:  GOTO   335
....................                { 
....................  
....................                   //Imprimir direccion de giro 
....................                   lcd_gotoxy(6,1); 
0A91:  MOVLW  06
0A92:  MOVWF  40
0A93:  MOVLW  01
0A94:  MOVWF  41
0A95:  BCF    0A.3
0A96:  CALL   20B
0A97:  BSF    0A.3
....................                   printf(lcd_putc, "D:Iz"); 
0A98:  MOVLW  A6
0A99:  BSF    03.6
0A9A:  MOVWF  0D
0A9B:  MOVLW  00
0A9C:  MOVWF  0F
0A9D:  BCF    0A.3
0A9E:  BCF    03.6
0A9F:  CALL   249
0AA0:  BSF    0A.3
....................                   //conversion 
....................                   cGrados = (126 - iAdcGiro) * angulo ; 
0AA1:  MOVF   22,W
0AA2:  SUBLW  7E
0AA3:  CLRF   34
0AA4:  MOVWF  33
0AA5:  BCF    0A.3
0AA6:  CALL   625
0AA7:  BSF    0A.3
0AA8:  MOVF   7A,W
0AA9:  MOVWF  42
0AAA:  MOVF   79,W
0AAB:  MOVWF  41
0AAC:  MOVF   78,W
0AAD:  MOVWF  40
0AAE:  MOVF   77,W
0AAF:  MOVWF  3F
0AB0:  MOVLW  6E
0AB1:  MOVWF  46
0AB2:  MOVLW  DB
0AB3:  MOVWF  45
0AB4:  MOVLW  36
0AB5:  MOVWF  44
0AB6:  MOVLW  7D
0AB7:  MOVWF  43
0AB8:  BCF    0A.3
0AB9:  CALL   3B8
0ABA:  BSF    0A.3
0ABB:  MOVF   7A,W
0ABC:  MOVWF  27
0ABD:  MOVF   79,W
0ABE:  MOVWF  26
0ABF:  MOVF   78,W
0AC0:  MOVWF  25
0AC1:  MOVF   77,W
0AC2:  MOVWF  24
....................                   lcd_gotoxy(11,1); 
0AC3:  MOVLW  0B
0AC4:  MOVWF  40
0AC5:  MOVLW  01
0AC6:  MOVWF  41
0AC7:  BCF    0A.3
0AC8:  CALL   20B
0AC9:  BSF    0A.3
....................                   printf(lcd_putc, "%.2f%c", cGrados,223); 
0ACA:  MOVLW  89
0ACB:  MOVWF  04
0ACC:  MOVF   27,W
0ACD:  MOVWF  35
0ACE:  MOVF   26,W
0ACF:  MOVWF  34
0AD0:  MOVF   25,W
0AD1:  MOVWF  33
0AD2:  MOVF   24,W
0AD3:  MOVWF  32
0AD4:  MOVLW  02
0AD5:  MOVWF  36
0AD6:  BCF    0A.3
0AD7:  CALL   49B
0AD8:  BSF    0A.3
0AD9:  MOVLW  DF
0ADA:  MOVWF  3F
0ADB:  BCF    0A.3
0ADC:  CALL   21D
0ADD:  BSF    0A.3
....................                   //Imprimir en puerto serie 
....................                   printf("S1: %u\n\r", iAdcGiro); 
0ADE:  MOVLW  A9
0ADF:  BSF    03.6
0AE0:  MOVWF  0D
0AE1:  MOVLW  00
0AE2:  MOVWF  0F
0AE3:  BCF    03.0
0AE4:  MOVLW  04
0AE5:  BCF    03.6
0AE6:  MOVWF  32
0AE7:  BCF    0A.3
0AE8:  CALL   312
0AE9:  BSF    0A.3
0AEA:  MOVF   22,W
0AEB:  MOVWF  32
0AEC:  MOVLW  1B
0AED:  MOVWF  33
0AEE:  BCF    0A.3
0AEF:  CALL   380
0AF0:  BSF    0A.3
0AF1:  MOVLW  0A
0AF2:  BTFSS  0C.4
0AF3:  GOTO   2F2
0AF4:  MOVWF  19
0AF5:  MOVLW  0D
0AF6:  BTFSS  0C.4
0AF7:  GOTO   2F6
0AF8:  MOVWF  19
....................                   printf("Direccion: Izquierda\n\r"); 
0AF9:  MOVLW  AE
0AFA:  BSF    03.6
0AFB:  MOVWF  0D
0AFC:  MOVLW  00
0AFD:  MOVWF  0F
0AFE:  BCF    0A.3
0AFF:  BCF    03.6
0B00:  CALL   29F
0B01:  BSF    0A.3
....................                   printf("Grados: %.2f%c\n\r", cGrados,223); 
0B02:  MOVLW  BA
0B03:  BSF    03.6
0B04:  MOVWF  0D
0B05:  MOVLW  00
0B06:  MOVWF  0F
0B07:  BCF    03.0
0B08:  MOVLW  08
0B09:  BCF    03.6
0B0A:  MOVWF  32
0B0B:  BCF    0A.3
0B0C:  CALL   312
0B0D:  BSF    0A.3
0B0E:  MOVLW  89
0B0F:  MOVWF  04
0B10:  MOVF   27,W
0B11:  MOVWF  35
0B12:  MOVF   26,W
0B13:  MOVWF  34
0B14:  MOVF   25,W
0B15:  MOVWF  33
0B16:  MOVF   24,W
0B17:  MOVWF  32
0B18:  MOVLW  02
0B19:  MOVWF  36
0B1A:  BCF    0A.3
0B1B:  CALL   55E
0B1C:  BSF    0A.3
0B1D:  MOVLW  DF
0B1E:  BTFSS  0C.4
0B1F:  GOTO   31E
0B20:  MOVWF  19
0B21:  MOVLW  0A
0B22:  BTFSS  0C.4
0B23:  GOTO   322
0B24:  MOVWF  19
0B25:  MOVLW  0D
0B26:  BTFSS  0C.4
0B27:  GOTO   326
0B28:  MOVWF  19
....................                   //actuadores 
....................                   output_high(PIN_C0); 
0B29:  BCF    21.0
0B2A:  MOVF   21,W
0B2B:  BSF    03.5
0B2C:  MOVWF  07
0B2D:  BCF    03.5
0B2E:  BSF    07.0
....................                   output_low(PIN_C1); 
0B2F:  BCF    21.1
0B30:  MOVF   21,W
0B31:  BSF    03.5
0B32:  MOVWF  07
0B33:  BCF    03.5
0B34:  BCF    07.1
....................                } 
....................                 
....................                 
....................                //validar aceleracion 
....................                if(iAdcAceleracion == 127 || iAdcAceleracion == 128) 
0B35:  MOVF   23,W
0B36:  SUBLW  7F
0B37:  BTFSC  03.2
0B38:  GOTO   33D
0B39:  MOVF   23,W
0B3A:  SUBLW  80
0B3B:  BTFSS  03.2
0B3C:  GOTO   3AD
....................                { 
....................                   //no se limpia pantalla pues se debe de visualizar la info del if anterior 
....................                   //Imprimir direccion de giro 
....................                   lcd_gotoxy(1,2); 
0B3D:  MOVLW  01
0B3E:  MOVWF  40
0B3F:  MOVLW  02
0B40:  MOVWF  41
0B41:  BCF    0A.3
0B42:  CALL   20B
0B43:  BSF    0A.3
....................                   printf(lcd_putc, "Rep V:%.2f%%",0.00); 
0B44:  MOVLW  C3
0B45:  BSF    03.6
0B46:  MOVWF  0D
0B47:  MOVLW  00
0B48:  MOVWF  0F
0B49:  BCF    03.0
0B4A:  MOVLW  06
0B4B:  BCF    03.6
0B4C:  MOVWF  32
0B4D:  BCF    0A.3
0B4E:  CALL   642
0B4F:  BSF    0A.3
0B50:  MOVLW  89
0B51:  MOVWF  04
0B52:  CLRF   35
0B53:  CLRF   34
0B54:  CLRF   33
0B55:  CLRF   32
0B56:  MOVLW  02
0B57:  MOVWF  36
0B58:  BCF    0A.3
0B59:  CALL   49B
0B5A:  BSF    0A.3
0B5B:  MOVLW  25
0B5C:  MOVWF  3F
0B5D:  BCF    0A.3
0B5E:  CALL   21D
0B5F:  BSF    0A.3
....................                   //Imprimir en puerto serie 
....................                   printf("S2: %u\n\r", iAdcAceleracion); 
0B60:  MOVLW  CA
0B61:  BSF    03.6
0B62:  MOVWF  0D
0B63:  MOVLW  00
0B64:  MOVWF  0F
0B65:  BCF    03.0
0B66:  MOVLW  04
0B67:  BCF    03.6
0B68:  MOVWF  32
0B69:  BCF    0A.3
0B6A:  CALL   312
0B6B:  BSF    0A.3
0B6C:  MOVF   23,W
0B6D:  MOVWF  32
0B6E:  MOVLW  1B
0B6F:  MOVWF  33
0B70:  BCF    0A.3
0B71:  CALL   380
0B72:  BSF    0A.3
0B73:  MOVLW  0A
0B74:  BTFSS  0C.4
0B75:  GOTO   374
0B76:  MOVWF  19
0B77:  MOVLW  0D
0B78:  BTFSS  0C.4
0B79:  GOTO   378
0B7A:  MOVWF  19
....................                   printf("Estado: Reposo\n\r"); 
0B7B:  MOVLW  CF
0B7C:  BSF    03.6
0B7D:  MOVWF  0D
0B7E:  MOVLW  00
0B7F:  MOVWF  0F
0B80:  BCF    0A.3
0B81:  BCF    03.6
0B82:  CALL   29F
0B83:  BSF    0A.3
....................                   printf("Velocidad: %.2f%%", 0.00); 
0B84:  MOVLW  D8
0B85:  BSF    03.6
0B86:  MOVWF  0D
0B87:  MOVLW  00
0B88:  MOVWF  0F
0B89:  BCF    03.0
0B8A:  MOVLW  0B
0B8B:  BCF    03.6
0B8C:  MOVWF  32
0B8D:  BCF    0A.3
0B8E:  CALL   312
0B8F:  BSF    0A.3
0B90:  MOVLW  89
0B91:  MOVWF  04
0B92:  CLRF   35
0B93:  CLRF   34
0B94:  CLRF   33
0B95:  CLRF   32
0B96:  MOVLW  02
0B97:  MOVWF  36
0B98:  BCF    0A.3
0B99:  CALL   55E
0B9A:  BSF    0A.3
0B9B:  MOVLW  25
0B9C:  BTFSS  0C.4
0B9D:  GOTO   39C
0B9E:  MOVWF  19
....................                   //actuadores 
....................                   output_low(PIN_C4); 
0B9F:  BCF    21.4
0BA0:  MOVF   21,W
0BA1:  BSF    03.5
0BA2:  MOVWF  07
0BA3:  BCF    03.5
0BA4:  BCF    07.4
....................                   output_low(PIN_C5); 
0BA5:  BCF    21.5
0BA6:  MOVF   21,W
0BA7:  BSF    03.5
0BA8:  MOVWF  07
0BA9:  BCF    03.5
0BAA:  BCF    07.5
....................                   set_pwm1_duty(0); 
0BAB:  CLRF   15
....................                    
....................                } 
0BAC:  GOTO   4EA
....................                else if(iAdcAceleracion > 128) 
0BAD:  MOVF   23,W
0BAE:  SUBLW  80
0BAF:  BTFSC  03.0
0BB0:  GOTO   44E
....................                { 
....................                   //conversion 
....................                   cPWM = (iAdcAceleracion - 126) * aceleracion; 
0BB1:  MOVLW  7E
0BB2:  SUBWF  23,W
0BB3:  CLRF   34
0BB4:  MOVWF  33
0BB5:  BCF    0A.3
0BB6:  CALL   625
0BB7:  BSF    0A.3
0BB8:  MOVF   7A,W
0BB9:  MOVWF  42
0BBA:  MOVF   79,W
0BBB:  MOVWF  41
0BBC:  MOVF   78,W
0BBD:  MOVWF  40
0BBE:  MOVF   77,W
0BBF:  MOVWF  3F
0BC0:  MOVLW  B3
0BC1:  MOVWF  46
0BC2:  MOVLW  2C
0BC3:  MOVWF  45
0BC4:  MOVLW  4B
0BC5:  MOVWF  44
0BC6:  MOVLW  7E
0BC7:  MOVWF  43
0BC8:  BCF    0A.3
0BC9:  CALL   3B8
0BCA:  BSF    0A.3
0BCB:  MOVF   7A,W
0BCC:  MOVWF  2B
0BCD:  MOVF   79,W
0BCE:  MOVWF  2A
0BCF:  MOVF   78,W
0BD0:  MOVWF  29
0BD1:  MOVF   77,W
0BD2:  MOVWF  28
....................                   //Imprimir 
....................                   lcd_gotoxy(1,2); 
0BD3:  MOVLW  01
0BD4:  MOVWF  40
0BD5:  MOVLW  02
0BD6:  MOVWF  41
0BD7:  BCF    0A.3
0BD8:  CALL   20B
0BD9:  BSF    0A.3
....................                   printf(lcd_putc, "Mar V:%.2f%%",cPWM); 
0BDA:  MOVLW  E1
0BDB:  BSF    03.6
0BDC:  MOVWF  0D
0BDD:  MOVLW  00
0BDE:  MOVWF  0F
0BDF:  BCF    03.0
0BE0:  MOVLW  06
0BE1:  BCF    03.6
0BE2:  MOVWF  32
0BE3:  BCF    0A.3
0BE4:  CALL   642
0BE5:  BSF    0A.3
0BE6:  MOVLW  89
0BE7:  MOVWF  04
0BE8:  MOVF   2B,W
0BE9:  MOVWF  35
0BEA:  MOVF   2A,W
0BEB:  MOVWF  34
0BEC:  MOVF   29,W
0BED:  MOVWF  33
0BEE:  MOVF   28,W
0BEF:  MOVWF  32
0BF0:  MOVLW  02
0BF1:  MOVWF  36
0BF2:  BCF    0A.3
0BF3:  CALL   49B
0BF4:  BSF    0A.3
0BF5:  MOVLW  25
0BF6:  MOVWF  3F
0BF7:  BCF    0A.3
0BF8:  CALL   21D
0BF9:  BSF    0A.3
....................                   //Imprimir en puerto serie 
....................                   printf("S2: %u\n\r", iAdcAceleracion); 
0BFA:  MOVLW  E8
0BFB:  BSF    03.6
0BFC:  MOVWF  0D
0BFD:  MOVLW  00
0BFE:  MOVWF  0F
0BFF:  BCF    03.0
0C00:  MOVLW  04
0C01:  BCF    03.6
0C02:  MOVWF  32
0C03:  BCF    0A.3
0C04:  CALL   312
0C05:  BSF    0A.3
0C06:  MOVF   23,W
0C07:  MOVWF  32
0C08:  MOVLW  1B
0C09:  MOVWF  33
0C0A:  BCF    0A.3
0C0B:  CALL   380
0C0C:  BSF    0A.3
0C0D:  MOVLW  0A
0C0E:  BTFSS  0C.4
0C0F:  GOTO   40E
0C10:  MOVWF  19
0C11:  MOVLW  0D
0C12:  BTFSS  0C.4
0C13:  GOTO   412
0C14:  MOVWF  19
....................                   printf("Estado: Marcha\n\r"); 
0C15:  MOVLW  ED
0C16:  BSF    03.6
0C17:  MOVWF  0D
0C18:  MOVLW  00
0C19:  MOVWF  0F
0C1A:  BCF    0A.3
0C1B:  BCF    03.6
0C1C:  CALL   29F
0C1D:  BSF    0A.3
....................                   printf("Velocidad: %.2f%%", 0.00); 
0C1E:  MOVLW  F6
0C1F:  BSF    03.6
0C20:  MOVWF  0D
0C21:  MOVLW  00
0C22:  MOVWF  0F
0C23:  BCF    03.0
0C24:  MOVLW  0B
0C25:  BCF    03.6
0C26:  MOVWF  32
0C27:  BCF    0A.3
0C28:  CALL   312
0C29:  BSF    0A.3
0C2A:  MOVLW  89
0C2B:  MOVWF  04
0C2C:  CLRF   35
0C2D:  CLRF   34
0C2E:  CLRF   33
0C2F:  CLRF   32
0C30:  MOVLW  02
0C31:  MOVWF  36
0C32:  BCF    0A.3
0C33:  CALL   55E
0C34:  BSF    0A.3
0C35:  MOVLW  25
0C36:  BTFSS  0C.4
0C37:  GOTO   436
0C38:  MOVWF  19
....................                   //actuadores 
....................                   output_high(PIN_C4); 
0C39:  BCF    21.4
0C3A:  MOVF   21,W
0C3B:  BSF    03.5
0C3C:  MOVWF  07
0C3D:  BCF    03.5
0C3E:  BSF    07.4
....................                   output_low(PIN_C5); 
0C3F:  BCF    21.5
0C40:  MOVF   21,W
0C41:  BSF    03.5
0C42:  MOVWF  07
0C43:  BCF    03.5
0C44:  BCF    07.5
....................                   valor_pwm_der = ((iAdcAceleracion-126)*2); 
0C45:  MOVLW  7E
0C46:  SUBWF  23,W
0C47:  MOVWF  77
0C48:  BCF    03.0
0C49:  RLF    77,W
0C4A:  MOVWF  2C
....................                   set_pwm1_duty(valor_pwm_der); 
0C4B:  MOVF   2C,W
0C4C:  MOVWF  15
....................                }else 
0C4D:  GOTO   4EA
....................                { 
....................                   //conversion 
....................                   cPWM = (126 - iAdcAceleracion) * aceleracion; 
0C4E:  MOVF   23,W
0C4F:  SUBLW  7E
0C50:  CLRF   34
0C51:  MOVWF  33
0C52:  BCF    0A.3
0C53:  CALL   625
0C54:  BSF    0A.3
0C55:  MOVF   7A,W
0C56:  MOVWF  42
0C57:  MOVF   79,W
0C58:  MOVWF  41
0C59:  MOVF   78,W
0C5A:  MOVWF  40
0C5B:  MOVF   77,W
0C5C:  MOVWF  3F
0C5D:  MOVLW  B3
0C5E:  MOVWF  46
0C5F:  MOVLW  2C
0C60:  MOVWF  45
0C61:  MOVLW  4B
0C62:  MOVWF  44
0C63:  MOVLW  7E
0C64:  MOVWF  43
0C65:  BCF    0A.3
0C66:  CALL   3B8
0C67:  BSF    0A.3
0C68:  MOVF   7A,W
0C69:  MOVWF  2B
0C6A:  MOVF   79,W
0C6B:  MOVWF  2A
0C6C:  MOVF   78,W
0C6D:  MOVWF  29
0C6E:  MOVF   77,W
0C6F:  MOVWF  28
....................                   //Imprimir direccion de giro 
....................                   lcd_gotoxy(1,2); 
0C70:  MOVLW  01
0C71:  MOVWF  40
0C72:  MOVLW  02
0C73:  MOVWF  41
0C74:  BCF    0A.3
0C75:  CALL   20B
0C76:  BSF    0A.3
....................                   printf(lcd_putc, "Rev V:%.2f%%",cPWM); 
0C77:  MOVLW  FF
0C78:  BSF    03.6
0C79:  MOVWF  0D
0C7A:  MOVLW  00
0C7B:  MOVWF  0F
0C7C:  BCF    03.0
0C7D:  MOVLW  06
0C7E:  BCF    03.6
0C7F:  MOVWF  32
0C80:  BCF    0A.3
0C81:  CALL   642
0C82:  BSF    0A.3
0C83:  MOVLW  89
0C84:  MOVWF  04
0C85:  MOVF   2B,W
0C86:  MOVWF  35
0C87:  MOVF   2A,W
0C88:  MOVWF  34
0C89:  MOVF   29,W
0C8A:  MOVWF  33
0C8B:  MOVF   28,W
0C8C:  MOVWF  32
0C8D:  MOVLW  02
0C8E:  MOVWF  36
0C8F:  BCF    0A.3
0C90:  CALL   49B
0C91:  BSF    0A.3
0C92:  MOVLW  25
0C93:  MOVWF  3F
0C94:  BCF    0A.3
0C95:  CALL   21D
0C96:  BSF    0A.3
....................                   //Imprimir en puerto serie 
....................                   printf("S2: %u\n\r", iAdcAceleracion); 
0C97:  MOVLW  06
0C98:  BSF    03.6
0C99:  MOVWF  0D
0C9A:  MOVLW  01
0C9B:  MOVWF  0F
0C9C:  BCF    03.0
0C9D:  MOVLW  04
0C9E:  BCF    03.6
0C9F:  MOVWF  32
0CA0:  BCF    0A.3
0CA1:  CALL   312
0CA2:  BSF    0A.3
0CA3:  MOVF   23,W
0CA4:  MOVWF  32
0CA5:  MOVLW  1B
0CA6:  MOVWF  33
0CA7:  BCF    0A.3
0CA8:  CALL   380
0CA9:  BSF    0A.3
0CAA:  MOVLW  0A
0CAB:  BTFSS  0C.4
0CAC:  GOTO   4AB
0CAD:  MOVWF  19
0CAE:  MOVLW  0D
0CAF:  BTFSS  0C.4
0CB0:  GOTO   4AF
0CB1:  MOVWF  19
....................                   printf("Estado: Reversa\n\r"); 
0CB2:  MOVLW  0B
0CB3:  BSF    03.6
0CB4:  MOVWF  0D
0CB5:  MOVLW  01
0CB6:  MOVWF  0F
0CB7:  BCF    0A.3
0CB8:  BCF    03.6
0CB9:  CALL   29F
0CBA:  BSF    0A.3
....................                   printf("Velocidad: %.2f%%", 0.00); 
0CBB:  MOVLW  14
0CBC:  BSF    03.6
0CBD:  MOVWF  0D
0CBE:  MOVLW  01
0CBF:  MOVWF  0F
0CC0:  BCF    03.0
0CC1:  MOVLW  0B
0CC2:  BCF    03.6
0CC3:  MOVWF  32
0CC4:  BCF    0A.3
0CC5:  CALL   312
0CC6:  BSF    0A.3
0CC7:  MOVLW  89
0CC8:  MOVWF  04
0CC9:  CLRF   35
0CCA:  CLRF   34
0CCB:  CLRF   33
0CCC:  CLRF   32
0CCD:  MOVLW  02
0CCE:  MOVWF  36
0CCF:  BCF    0A.3
0CD0:  CALL   55E
0CD1:  BSF    0A.3
0CD2:  MOVLW  25
0CD3:  BTFSS  0C.4
0CD4:  GOTO   4D3
0CD5:  MOVWF  19
....................                   //actuadores 
....................                   output_low(PIN_C4); 
0CD6:  BCF    21.4
0CD7:  MOVF   21,W
0CD8:  BSF    03.5
0CD9:  MOVWF  07
0CDA:  BCF    03.5
0CDB:  BCF    07.4
....................                   output_high(PIN_C5); 
0CDC:  BCF    21.5
0CDD:  MOVF   21,W
0CDE:  BSF    03.5
0CDF:  MOVWF  07
0CE0:  BCF    03.5
0CE1:  BSF    07.5
....................                   valor_pwm_izq = (126-iAdcAceleracion)*2; 
0CE2:  MOVF   23,W
0CE3:  SUBLW  7E
0CE4:  MOVWF  77
0CE5:  BCF    03.0
0CE6:  RLF    77,W
0CE7:  MOVWF  2D
....................                   set_pwm1_duty(valor_pwm_izq); 
0CE8:  MOVF   2D,W
0CE9:  MOVWF  15
....................                    
....................                } 
....................                 
....................                delay_ms(10); 
0CEA:  MOVLW  0A
0CEB:  MOVWF  40
0CEC:  BCF    0A.3
0CED:  CALL   166
0CEE:  BSF    0A.3
....................                 
....................                //se solicita confirmacion para salir 
....................                printf("Ingrese s para salir \n\r"); 
0CEF:  MOVLW  1D
0CF0:  BSF    03.6
0CF1:  MOVWF  0D
0CF2:  MOVLW  01
0CF3:  MOVWF  0F
0CF4:  BCF    0A.3
0CF5:  BCF    03.6
0CF6:  CALL   29F
0CF7:  BSF    0A.3
....................                salir = getch(); 
0CF8:  BCF    0A.3
0CF9:  CALL   2F7
0CFA:  BSF    0A.3
0CFB:  MOVF   78,W
0CFC:  MOVWF  31
....................                if(salir == 's')  
0CFD:  MOVF   31,W
0CFE:  SUBLW  73
0CFF:  BTFSC  03.2
....................                { 
....................                   break; 
0D00:  GOTO   507
....................                } 
....................               
....................                delay_ms(10);   
0D01:  MOVLW  0A
0D02:  MOVWF  40
0D03:  BCF    0A.3
0D04:  CALL   166
0D05:  BSF    0A.3
0D06:  GOTO   0FA
....................             } 
....................         
....................              
....................          } 
....................           
....................          if(salir == 's') { 
0D07:  MOVF   31,W
0D08:  SUBLW  73
0D09:  BTFSC  03.2
....................                   break; 
0D0A:  GOTO   5A7
....................          } 
....................           
....................          case 'b': 
....................          { 
....................             while(true) 
....................             { 
....................                //leer una entrada 
....................                set_adc_channel(1); 
0D0B:  MOVLW  04
0D0C:  MOVWF  78
0D0D:  MOVF   1F,W
0D0E:  ANDLW  C3
0D0F:  IORWF  78,W
0D10:  MOVWF  1F
....................                delay_ms(10); 
0D11:  MOVLW  0A
0D12:  MOVWF  40
0D13:  BCF    0A.3
0D14:  CALL   166
0D15:  BSF    0A.3
....................                iAdcAceleracion = read_adc(); 
0D16:  BSF    1F.1
0D17:  BTFSC  1F.1
0D18:  GOTO   517
0D19:  MOVF   1E,W
0D1A:  MOVWF  23
....................                                              
....................                //limpiar lcd 
....................                printf(lcd_putc,"\f"); 
0D1B:  MOVLW  0C
0D1C:  MOVWF  3F
0D1D:  BCF    0A.3
0D1E:  CALL   21D
0D1F:  BSF    0A.3
....................                //se solicita confirmacion para salir 
....................                               
....................                //Imprimir en LCD 
....................                lcd_gotoxy(1,1); 
0D20:  MOVLW  01
0D21:  MOVWF  40
0D22:  MOVWF  41
0D23:  BCF    0A.3
0D24:  CALL   20B
0D25:  BSF    0A.3
....................                printf(lcd_putc, "M:Automatico"); 
0D26:  MOVLW  29
0D27:  BSF    03.6
0D28:  MOVWF  0D
0D29:  MOVLW  01
0D2A:  MOVWF  0F
0D2B:  BCF    0A.3
0D2C:  BCF    03.6
0D2D:  CALL   249
0D2E:  BSF    0A.3
....................                //imprimir en monitor serie 
....................                printf("Modo de trabajo b: Automatico\n\r"); 
0D2F:  MOVLW  30
0D30:  BSF    03.6
0D31:  MOVWF  0D
0D32:  MOVLW  01
0D33:  MOVWF  0F
0D34:  BCF    0A.3
0D35:  BCF    03.6
0D36:  CALL   29F
0D37:  BSF    0A.3
....................                // manter marcha o no 
....................                if(iAdcAceleracion > 128) 
0D38:  MOVF   23,W
0D39:  SUBLW  80
0D3A:  BTFSC  03.0
0D3B:  GOTO   563
....................                { 
....................                   //imprimir en LCD detener 
....................                   lcd_gotoxy(1,2); 
0D3C:  MOVLW  01
0D3D:  MOVWF  40
0D3E:  MOVLW  02
0D3F:  MOVWF  41
0D40:  BCF    0A.3
0D41:  CALL   20B
0D42:  BSF    0A.3
....................                   printf(lcd_putc, "Detener"); 
0D43:  MOVLW  40
0D44:  BSF    03.6
0D45:  MOVWF  0D
0D46:  MOVLW  01
0D47:  MOVWF  0F
0D48:  BCF    0A.3
0D49:  BCF    03.6
0D4A:  CALL   249
0D4B:  BSF    0A.3
....................                   //imrpirmir en monitor serie 
....................                   printf("Denido: Hay un obstaculo"); 
0D4C:  MOVLW  44
0D4D:  BSF    03.6
0D4E:  MOVWF  0D
0D4F:  MOVLW  01
0D50:  MOVWF  0F
0D51:  BCF    0A.3
0D52:  BCF    03.6
0D53:  CALL   29F
0D54:  BSF    0A.3
....................                   //actuadores 
....................                   set_pwm1_duty(0); 
0D55:  CLRF   15
....................                   output_low(PIN_C0); 
0D56:  BCF    21.0
0D57:  MOVF   21,W
0D58:  BSF    03.5
0D59:  MOVWF  07
0D5A:  BCF    03.5
0D5B:  BCF    07.0
....................                   output_low(PIN_C1); 
0D5C:  BCF    21.1
0D5D:  MOVF   21,W
0D5E:  BSF    03.5
0D5F:  MOVWF  07
0D60:  BCF    03.5
0D61:  BCF    07.1
....................                    
....................                }else{ 
0D62:  GOTO   58A
....................                   //imprimir en LCD avanzar 
....................                   lcd_gotoxy(1,2); 
0D63:  MOVLW  01
0D64:  MOVWF  40
0D65:  MOVLW  02
0D66:  MOVWF  41
0D67:  BCF    0A.3
0D68:  CALL   20B
0D69:  BSF    0A.3
....................                   printf(lcd_putc, "Avanzar"); 
0D6A:  MOVLW  51
0D6B:  BSF    03.6
0D6C:  MOVWF  0D
0D6D:  MOVLW  01
0D6E:  MOVWF  0F
0D6F:  BCF    0A.3
0D70:  BCF    03.6
0D71:  CALL   249
0D72:  BSF    0A.3
....................                   //imprimir en monitor serie 
....................                   printf("Avanzando"); 
0D73:  MOVLW  55
0D74:  BSF    03.6
0D75:  MOVWF  0D
0D76:  MOVLW  01
0D77:  MOVWF  0F
0D78:  BCF    0A.3
0D79:  BCF    03.6
0D7A:  CALL   29F
0D7B:  BSF    0A.3
....................                   //actuadores 
....................                   set_pwm1_duty(200); 
0D7C:  MOVLW  C8
0D7D:  MOVWF  15
....................                   output_high(PIN_C0); 
0D7E:  BCF    21.0
0D7F:  MOVF   21,W
0D80:  BSF    03.5
0D81:  MOVWF  07
0D82:  BCF    03.5
0D83:  BSF    07.0
....................                   output_high(PIN_C1); 
0D84:  BCF    21.1
0D85:  MOVF   21,W
0D86:  BSF    03.5
0D87:  MOVWF  07
0D88:  BCF    03.5
0D89:  BSF    07.1
....................                    
....................                } 
....................                delay_ms(100); 
0D8A:  MOVLW  64
0D8B:  MOVWF  40
0D8C:  BCF    0A.3
0D8D:  CALL   166
0D8E:  BSF    0A.3
....................                //se solicita confirmacion para salir 
....................                printf("Ingrese s para salir \n\r"); 
0D8F:  MOVLW  5A
0D90:  BSF    03.6
0D91:  MOVWF  0D
0D92:  MOVLW  01
0D93:  MOVWF  0F
0D94:  BCF    0A.3
0D95:  BCF    03.6
0D96:  CALL   29F
0D97:  BSF    0A.3
....................                salir = getch(); 
0D98:  BCF    0A.3
0D99:  CALL   2F7
0D9A:  BSF    0A.3
0D9B:  MOVF   78,W
0D9C:  MOVWF  31
....................                if(salir == 's')  
0D9D:  MOVF   31,W
0D9E:  SUBLW  73
0D9F:  BTFSC  03.2
....................                { 
....................                   break; 
0DA0:  GOTO   5A7
....................                } 
....................                 
....................                delay_ms(100); 
0DA1:  MOVLW  64
0DA2:  MOVWF  40
0DA3:  BCF    0A.3
0DA4:  CALL   166
0DA5:  BSF    0A.3
0DA6:  GOTO   50B
....................                                   
....................             } 
....................           
....................           
....................          } 
....................                 
....................       } 
0DA7:  GOTO   066
....................        
....................        
....................       
....................        
....................        
....................       
....................    } 
.................... } 
0DA8:  SLEEP

Configuration Fuses:
   Word  1: 2CA4   INTRC_IO NOWDT PUT MCLR PROTECT NOCPD NOBROWNOUT IESO FCMEN NOLVP NODEBUG
   Word  2: 3FFF   BORV40 NOWRT
